c__builtin__
set
p0
((lp1
Vheart
p2
aVbecause
p3
aVogre
p4
aVspring
p5
aVdescribe
p6
aVback
p7
aVwhere v
p8
aVsemester
p9
aVstilt
p10
aVbreath-taking
p11
aVmiss
p12
aVcity
p13
aVmind-blowing
p14
aVsum
p15
aVstool
p16
aV/
p17
aVWilliam
p18
aVconvict
p19
aVhat
p20
aVfriend
p21
aV's
p22
aVbeauty
p23
aVmountain
p24
aVmem
p25
aVjoy
p26
aVsorrow
p27
aVstay
p28
aVput
p29
aVgorge
p30
aVlost
p31
aVtear
p32
aVabsolve
p33
aVdoe
p34
aVhav
p35
aVcal
p36
aVlaughter
p37
aVreally-could-have-been-mountain-day
p38
atp39
Rp40
.