c__builtin__
set
p0
((lp1
Vshop
p2
aVinstead
p3
aVkob
p4
aVbecause
p5
aVlove
p6
aVogre
p7
aVfeel
p8
aVspring
p9
aVfore v
p10
aVdescribe
p11
aVcrossgates~~
p12
aVback
p13
aVmonth
p14
aVtonight
p15
aVpair
p16
aVeveryone
p17
aVclosest
p18
aVrent
p19
aVgo
p20
aV's
p21
aVMadelin
p22
aVmiss
p23
aVtrip
p24
aVmath
p25
aVcity
p26
aVguess
p27
aVbbl
p28
aV%
p29
aVthank
p30
aVwould
p31
aV)
p32
aVhelp
p33
aVcont
p34
aVshanghai
p35
aV-
p36
aVsnow
p37
aVfight
p38
aVWilliam
p39
aV3
p40
aVgoing
p41
aVsick
p42
aVgot
p43
aVmal
p44
aVsize
p45
aVak
p46
aVfriend
p47
aVgave
p48
aVcloys
p49
aVBudapest
p50
aVmove
p51
aVstar
p52
aVwa
p53
aVget
p54
aVwatch
p55
aV26
p56
aVstay
p57
aVbury
p58
aVheat
p59
aVmi-am
p60
aVplan
p61
aVhwy
p62
aVput
p63
aVgorge
p64
aV'm
p65
aVha
p66
aVshoe
p67
aVclass
p68
aVdied
p69
aVapart
p70
aVplay
p71
aVroom
p72
aVmany
p73
aVknow
p74
aVdoe
p75
aVn't
p76
aVsomeone
p77
aVhav
p78
aVlearn
p79
aVtoe
p80
aVcurry
p81
aVhello
p82
aVbet
p83
aVfirst
p84
atp85
Rp86
.