(lp0
(I25
(lp1
Vstilt
p2
aVconvict
p3
aVbeauty
p4
aVmountain
p5
aV/
p6
aVreally-could-have-been-mountain-day
p7
atp8
a(I12
(lp9
Vmove
p10
aVnew
p11
aVapart
p12
aVmany
p13
aVthank
p14
aVeveryone
p15
aVyo
p16
aVhelp
p17
aV^~^
p18
atp19
a(I2
(lp20
Vurge
p21
aVcanyon
p22
aVsublet
p23
aVroominess
p24
aVsomeone
p25
aV's
p26
aVsublet
p27
aVroom
p28
aVCambridge
p29
aVther
p30
aVwa
p31
aVfir
p32
aVbuild
p33
aVwa
p34
aVgoing
p35
aVlive
p36
aVar
p37
aVask
p38
aVmove
p39
aVentire
p40
aVsum
p41
aVtot
p42
atp43
a(I25
(lp44
VBudapest
p45
aVcity
p46
aVlost
p47
aVcity
p48
aVstool
p49
aVlove
p50
aVwon
p51
aVheart
p52
aVcity
p53
aVlove
p54
aVhat
p55
aVfore v
p56
aVstay
p57
aVmem
p58
aVtear
p59
aVlaughter
p60
aVsorrow
p61
aVjoy
p62
aVwould
p63
aVcal
p64
aVspring
p65
aVogre
p66
aVsemester
p67
aVogre
p68
aVdescribe
p69
aVwa
p70
aVmind-blowing
p71
aVbreath-taking
p72
aVwound
p73
aVfriend
p74
aVput
p75
aVwa
p76
aVworthwhile
p77
aVabsolve
p78
aVworthwhile
p79
aVmiss
p80
aVbecause
p81
aVwhere v
p82
aVgo
p83
atp84
a(I1
(lp85
Vfair
p86
aVably
p87
aVfoci
p88
aVany-th
p89
aVoath
p90
aVsome
p91
aVreal
p92
aVnevi
p93
aVchang
p94
aVsome
p95
aVfantasy
p96
aVwould
p97
aVnevi
p98
aVcom
p99
aVtrue
p100
aV>
p101
atp102
a(I13
(lp103
Vp
p104
atp105
a(I19
(lp106
V30
p107
aVhour
p108
aVmath
p109
aVclass
p110
aVfirst
p111
aVweek
p112
aVshop
p113
aVperiod
p114
aV-
p115
aVguess
p116
aV'm
p117
aVshoptalk
p118
aVevery
p119
aNatp120
a(I18
(lp121
Vaft
p122
aVwatch
p123
aVsnow
p124
aVheat
p125
aVroom
p126
aVstar
p127
aVceil
p128
aVfeel
p129
aVsick
p130
aVextreme
p131
aVbor
p132
aVwithout
p133
aVinternet
p134
aVinternet
p135
aVset
p136
aVlaptop
p137
aVhello
p138
aVBudapest
p139
atp140
a(I22
(lp141
Vlast
p142
aVclass
p143
aVjun y
p144
aVWilliam
p145
atp146
a(I5
(lp147
Vfar
p148
aVeh
p149
aVmove
p150
aVdebut
p151
aVconcert
p152
aVtonight
p153
aV7pm
p154
aVcurry
p155
aVbal
p156
aVroom
p157
aVget
p158
aVpump
p159
aVoh
p160
aVwait
p161
aVn't
p162
aVpair
p163
aVshoe
p164
aVmay
p165
aVborrow
p166
aVpair
p167
aVsize
p168
aV55/6
p169
aVcloys
p170
aVtoe
p171
aVheel
p172
aVsomeone
p173
atp174
a(I0
(lp175
Vresponse
p176
aVnew
p177
aVguideline
p178
aVhereby
p179
aVdecal
p180
aVcopyright
p181
aVattach
p182
aVperson
p183
aVdetail
p184
aVcontain
p185
aVperson
p186
aVbusy
p187
aVprofile
p188
aVinclude
p189
aVlimit
p190
aVposting
p191
aNaVupdate
p192
aVcomment
p193
aVillustration
p194
aVpainting
p195
aVdrawing
p196
aVart
p197
aVphotograph
p198
aNaVvideo
p199
aNaVper
p200
aVtern
p201
aVcon v
p202
aVprotect
p203
aVlit
p204
aVart
p205
aVwork
p206
aVa/k/
p207
aVtern
p208
aVcon v
p209
aVcommerce
p210
aVus
p211
aVabove
p212
aNaVrequire
p213
aNaVtime
p214
aNaVcommunique
p215
aVstrictly
p216
aVforbid
p217
aVdisclose
p218
aVcop
p219
aVdistribute
p220
aVdisseminate
p221
aVteak
p222
aVoath
p223
aVact
p224
aVbas
p225
aVprofile
p226
aVcandor
p227
aVcontent
p228
aVoaf
p229
aVprohibit
p230
aVaction
p231
aValso
p232
aVapply
p233
aVemployee
p234
aVstudent
p235
aVagent
p236
aVcandor
p237
aVstaff
p238
aVundo
p239
aV's
p240
aVdirect
p241
aVcontrol
p242
aNaVprofile
p243
aVprivy
p244
aVconfide
p245
aVinform
p246
aVviol
p247
aVprivy
p248
aVpun
p249
aVlaw
p250
aVu cc
p251
aV1
p252
aV1-308-308
p253
aV1-103
p254
aVroom
p255
aVstatute
p256
aVcanyon
p257
aVread
p258
aVcop
p259
aVtext
p260
aVpast
p261
aVweal
p262
aVplace
p263
aVundo
p264
aVprotect
p265
aVcopyright
p266
aVlaw
p267
aVop
p268
aVcapita
p269
aVwent
p270
aVmember
p271
aVar
p272
aVrecommend
p273
aVpub l
p274
aVlink
p275
aNaVmay
p276
aVcop
p277
aVpast
p278
aVvert
p279
aVpub l
p280
aNaVleast
p281
aVwont
p282
aVtacit
p283
aVallow
p284
aVus
p285
aVelement
p286
aVyo
p287
aVphoto
p288
aVwel
p289
aVinform
p290
aVcontain
p291
aVyo
p292
aVprofile
p293
aNaVupdate
p294
atp295
a(I23
(lp296
Vword
p297
aVmac
p298
atp299
a(I6
(lp300
NaV12th
p301
aV``
p302
aVsafe
p303
aVconnect
p304
aV''
p305
aVaft
p306
aVcom
p307
aVWilliam
p308
atp309
a(I24
(lp310
VWilliam
p311
aVWilliamson
p312
aVdoe
p313
aVsum
p314
aV's
p315
aVgorge
p316
atp317
a(I3
(lp318
NaVroom
p319
aVexcessive
p320
aValway
p321
aVmake
p322
aVcry
p323
aS'leaf'
p324
aVbreak
p325
ag101
aVo
p326
aVmiss
p327
aVKalil
p328
aV3
p329
aVnic
p330
aVbreak
p331
atp332
a(I12
(lp333
NaVcard
p334
aVmail
p335
aVtwenty
p336
aV1st
p337
aVbirthday
p338
aVleg
p339
aV10
p340
aV^~^
p341
atp342
a(I9
(lp343
Vgoing
p344
aVmi-am
p345
aV26
p346
aVmonth
p347
atp348
a(I21
(lp349
V\u005c
p350
aV^~^
p351
ag6
atp352
a(I13
(lp353
Vrevel
p354
aVinvite
p355
aVmailbox
p356
aVtoday
p357
aVmiss
p358
aVem m
p359
aV333
p360
atp361
a(I3
(lp362
Vconfirm
p363
aVfriend
p364
aVgirl
p365
aNaVvert
p366
aVfob
p367
aVak
p368
aVrent
p369
aVSamuel
p370
aVtrip
p371
aVknow
p372
aV'm
p373
aVtalk
p374
aVabout~~
p375
aVbecause
p376
aVnam
p377
aVmilt-on
p378
atp379
a(I14
(lp380
Vwatch
p381
aVkob
p382
aVbury
p383
aVplay
p384
aVbbl
p385
aVshanghai
p386
atp387
a(I5
(lp388
Vchil
p389
aVsin-gap
p390
atp391
a(I18
(lp392
Vhom
p393
atp394
a(I2
(lp395
Vflight
p396
aVcancel
p397
atp398
a(I15
(lp399
tp400
a(I13
(lp401
Vproud
p402
aVlove
p403
aVem m
p404
aVgirl
p405
aVclass
p406
aV11
p407
aVar
p408
aVamaze
p409
atp410
a(I13
(lp411
Vhom
p412
atp413
a(I1
(lp414
Vgo
p415
aVhom
p416
aVspring
p417
aVbreak
p418
atp419
a(I4
(lp420
Vholiday
p421
atp422
a(I1
(lp423
Vremind
p424
aVgive
p425
aVlucky
p426
aVmoney
p427
aVcar
p428
aV2011
p429
atp430
a(I0
(lp431
g101
aV_
p432
aVsomeone
p433
aVneed
p434
aVweak
p435
aVhe-id
p436
aVup~~~
p437
atp438
a(I0
(lp439
Vremind
p440
aVgive
p441
aVlucky
p442
aVmoney
p443
aVbeef
p444
aV2011~
p445
atp446
a(I3
(lp447
Vwound
p448
aVtal
p449
aVhe-id
p450
aVhahahahahahahhahah
p451
atp452
a(I7
(lp453
Vpeople
p454
aV1000
p455
aVwish
p456
aVChristmas
p457
aVcant
p458
aVpaty
p459
aVha
p460
aVget
p461
aVbet
p462
aVknow
p463
aV97
p464
aV%
p465
aVwo
p466
aVn't
p467
aVrepost
p468
aVyo
p469
aNaVfriend
p470
ag329
ag465
aVhon
p471
aVsomeone
p472
aVha
p473
aVdied
p474
aVstilt
p475
aVfight
p476
aVsurvey
p477
aVcant
p478
aVcop
p479
aVyo
p480
aNatp481
a(I3
(lp482
tp483
a(I10
(lp484
Vgave
p485
aNaVhwy
p486
aVtonight
p487
aVdecide
p488
aVplan
p489
aVwint
p490
aVbreak
p491
aVinstead
p492
atp493
a(I6
(lp494
Vharry
p495
aVpot
p496
aV1201am
p497
atp498
a(I0
(lp499
Vcanyon
p500
aVknow
p501
aVget
p502
aVAmherst
p503
aVtr
p504
atp505
a(I5
(lp506
Vrevel
p507
aVinvite
p508
aVcard
p509
aVtoday
p510
aVexcite
p511
aV^
p512
ag512
ag512
atp513
a(I0
(lp514
Vafter-halloween
p515
aVstudy
p516
aVparty
p517
aVtonight
p518
atp519
a(I6
(lp520
Natp521
a(I2
(lp522
Vn't
p523
aVlog
p524
aVaccount
p525
aVcompute
p526
aVlab
p527
aV^_^
p528
atp529
a(I0
(lp530
Vn't
p531
aVfeel
p532
aVlink
p533
aVwork
p534
atp535
a(I0
(lp536
Vmountain
p537
aVthank
p538
aVfrankly
p539
aVswim
p540
aVsave
p541
aVwat
p542
aVbottle
p543
ag104
atp544
a(I1
(lp545
Vsaw
p546
aVjean
p547
aVUlick
p548
aVMelisse
p549
aVtoday
p550
aVmiss
p551
ag329
atp552
a(I3
(lp553
Vlove
p554
aVmuch
p555
aVenough
p556
atp557
a(I6
(lp558
Vcome
p559
aVtrim
p560
aVrevelry
p561
aVeveryone
p562
aVgood
p563
aVluck
p564
aVenjoy
p565
atp566
a(I1
(lp567
Vmoon
p568
aVfest
p569
atp570
a(I0
(lp571
Vbirthday
p572
aNatp573
a(I3
(lp574
Vsang
p575
aVlye
p576
aVbeaux's
p577
aVchoir
p578
aVaudit
p579
aVmiss
p580
aVem m
p581
aVchoir
p582
aVspiro
p583
aVvoice
p584
aVlesson
p585
aVgroup
p586
aVdebar
p587
aVspiro-allen
p588
aVMadelin
p589
aVchant
p590
atp591
a(I4
(lp592
Vfirst
p593
aVcollege
p594
atp595
a(I5
(lp596
Vsick
p597
aVfirst
p598
aVory
p599
aVlove
p600
aVentry
p601
aVmate
p602
aV@
p603
aVWilliam
p604
atp605
a(I1
(lp606
Vtap
p607
aVfore v
p608
aVrev
p609
aVpeevers
p610
atp611
a(I1
(lp612
Vlearn
p613
aNaVmal
p614
aVWilliam
p615
aVcrossgates~~
p616
aV#
p617
ag465
ag512
atp618
a(I1
(lp619
Vsnow
p620
atp621
a(I0
(lp622
VShannah
p623
aVbow
p624
atp625
a(I0
(lp626
tp627
a(I1
(lp628
Vsing
p629
aVdaunt
p630
aVrevels-ing
p631
atp632
a(I0
(lp633
Vbow
p634
atp635
a(I1
(lp636
Vtomorrow
p637
aVWednesday
p638
atp639
a(I2
(lp640
Vus
p641
atp642
a(I0
(lp643
Vstilt
p644
aVcloudy
p645
ag101
aVwant
p646
aVsee
p647
aVeclipse
p648
atp649
a.