(lp0
(I25
(lp1
(Vstilt
p2
S'RB'
p3
tp4
a(Vconvict
p5
S'VBN'
p6
tp7
a(Vbeauty
p8
S'JJ'
p9
tp10
a(Vmountain
p11
S'VB'
p12
tp13
a(V/
p14
S':'
p15
tp16
a(Vreally-could-have-been-mountain-day
p17
S'NNP'
p18
tp19
atp20
a(I12
(lp21
(Vmove
p22
S'VBD'
p23
tp24
a(Vnew
p25
S'JJ'
p26
tp27
a(Vapart
p28
S'NNP'
p29
tp30
a(Vmany
p31
S'NNP'
p32
tp33
a(Vthank
p34
S'VBZ'
p35
tp36
a(Veveryone
p37
S'NN'
p38
tp39
a(Vhelp
p40
S'NN'
p41
tp42
a(V^~^
p43
g15
tp44
atp45
a(I2
(lp46
(Vurge
p47
S'NNP'
p48
tp49
a(Vcanyon
p50
g48
tp51
a(Vsublet
p52
S'NN'
p53
tp54
a(Vroom/knows
p55
S'JJ'
p56
tp57
a(Vsomeone
p58
S'NN'
p59
tp60
a(V's
p61
S'VBZ'
p62
tp63
a(Vsublet
p64
S'VBG'
p65
tp66
a(Vroom
p67
S'NN'
p68
tp69
a(Vboston/cambridge
p70
S'JJ'
p71
tp72
a(Vther
p73
S'EX'
p74
tp75
a(Vwa
p76
S'VBD'
p77
tp78
a(Vfir
p79
S'NN'
p80
tp81
a(Vbuild
p82
S'NN'
p83
tp84
a(Vwa
p85
S'VBD'
p86
tp87
a(Vgoing
p88
S'VBG'
p89
tp90
a(Vlive
p91
S'VB'
p92
tp93
a(Var
p94
S'VBP'
p95
tp96
a(Val
p97
S'RB'
p98
tp99
a(Vask
p100
S'VBN'
p101
tp102
a(Vmove
p103
S'VB'
p104
tp105
a(Ventire
p106
S'JJ'
p107
tp108
a(Vsum
p109
S'NN'
p110
tp111
a(Vtot
p112
S'NNP'
p113
tp114
atp115
a(I25
(lp116
(VBudapest
p117
S'NNP'
p118
tp119
a(Vcity
p120
S'NN'
p121
tp122
a(Vlost
p123
S'VBD'
p124
tp125
a(Vcity
p126
S'NN'
p127
tp128
a(Vstool
p129
g127
tp130
a(Vlove
p131
g127
tp132
a(Vheart
p133
S'NN'
p134
tp135
a(Vcity
p136
g134
tp137
a(Vlove
p138
S'VBP'
p139
tp140
a(Vhat
p141
S'JJ'
p142
tp143
a(Vfore v
p144
S'VB'
p145
tp146
a(Vstay
p147
S'NN'
p148
tp149
a(Vmem
p150
S'NN'
p151
tp152
a(Vtear
p153
S'NNS'
p154
tp155
a(Vlaughter
p156
g154
tp157
a(Vsorrow
p158
S'NN'
p159
tp160
a(Vjoy
p161
S'NNP'
p162
tp163
a(Vwould
p164
S'MD'
p165
tp166
a(Vcal
p167
S'VB'
p168
tp169
a(Vspring
p170
S'NNP'
p171
tp172
a(Vogre
p173
S'JJ'
p174
tp175
a(Vsemester
p176
S'NNP'
p177
tp178
a(Vogre
p179
g177
tp180
a(Vdescribe
p181
S'VB'
p182
tp183
a(Vwa
p184
S'VBD'
p185
tp186
a(Vmind-blowing
p187
S'JJ'
p188
tp189
a(Vbreath-taking
p190
g188
tp191
a(Vfriend
p192
S'NN'
p193
tp194
a(Vput
p195
S'VBD'
p196
tp197
a(Vwa
p198
g196
tp199
a(Vabsolve
p200
S'RB'
p201
tp202
a(Vmiss
p203
S'VB'
p204
tp205
a(Vbecause
p206
S'IN'
p207
tp208
a(Vwhere v
p209
S'JJR'
p210
tp211
a(Vgo
p212
S'VBP'
p213
tp214
atp215
a(I1
(lp216
(Vhav
p217
S'VBG'
p218
tp219
a(Vfair
p220
S'NN'
p221
tp222
a(Vably
p223
S'NN'
p224
tp225
a(Vfoci
p226
S'VB'
p227
tp228
a(Vany-th
p229
S'NN'
p230
tp231
a(Voath
p232
S'JJ'
p233
tp234
a(Vsome
p235
S'DT'
p236
tp237
a(Vreal
p238
S'NN'
p239
tp240
a(Vnevi
p241
S'RB'
p242
tp243
a(Vchang
p244
S'VBN'
p245
tp246
a(Vsome
p247
S'DT'
p248
tp249
a(Vfantasy
p250
S'JJ'
p251
tp252
a(Vwould
p253
S'MD'
p254
tp255
a(Vnevi
p256
S'RB'
p257
tp258
a(Vcom
p259
S'VB'
p260
tp261
a(Vtrue
p262
S'JJ'
p263
tp264
a(V>
p265
g15
tp266
atp267
a(I13
(lp268
(Vp
p269
S'NN'
p270
tp271
atp272
a(I19
(lp273
(V30
p274
S'CD'
p275
tp276
a(Vhour
p277
S'NNS'
p278
tp279
a(Vmath
p280
S'NN'
p281
tp282
a(Vclass
p283
S'NNS'
p284
tp285
a(Vfirst
p286
S'JJ'
p287
tp288
a(Vweek
p289
S'NN'
p290
tp291
a(Vshop
p292
S'VBG'
p293
tp294
a(Vperiod
p295
S'NN'
p296
tp297
a(V-
p298
g15
tp299
a(Vguess
p300
S'VBP'
p301
tp302
a(V'm
p303
S'VBP'
p304
tp305
a(Vshoptalk
p306
S'JJ'
p307
tp308
a(Vevery
p309
S'DT'
p310
tp311
a(Vsens
p312
S'NN'
p313
tp314
atp315
a(I18
(lp316
(Vaft
p317
S'IN'
p318
tp319
a(Vwatch
p320
S'VBG'
p321
tp322
a(Vsnow
p323
S'NN'
p324
tp325
a(Vheat
p326
S'VBN'
p327
tp328
a(Vroom
p329
S'NN'
p330
tp331
a(Vstar
p332
g330
tp333
a(Vceil
p334
S'NN'
p335
tp336
a(Vfeel
p337
S'VBG'
p338
tp339
a(Vsick
p340
S'NN'
p341
tp342
a(Vextreme
p343
S'RB'
p344
tp345
a(Vbor
p346
S'VBN'
p347
tp348
a(Vinternet
p349
S'NN'
p350
tp351
a(Vgot
p352
S'NNP'
p353
tp354
a(Vinternet
p355
g353
tp356
a(Vset
p357
S'NNP'
p358
tp359
a(Vlaptop
p360
g358
tp361
a(Vhello
p362
S'NNP'
p363
tp364
a(VBudapest
p365
g363
tp366
atp367
a(I22
(lp368
(Vlast
p369
S'JJ'
p370
tp371
a(Vclass
p372
S'NN'
p373
tp374
a(Vjun y
p375
S'NN'
p376
tp377
a(VWilliam
p378
S'NNP'
p379
tp380
atp381
a(I5
(lp382
(Vfar
p383
S'RB'
p384
tp385
a(Veh
p386
S'NNP'
p387
tp388
a(Vmove
p389
S'NNP'
p390
tp391
a(Vdebut
p392
g390
tp393
a(Vconcert
p394
S'NNP'
p395
tp396
a(Vtonight
p397
S'VBD'
p398
tp399
a(V7pm
p400
S'CD'
p401
tp402
a(Vcurry
p403
S'NNP'
p404
tp405
a(Vbal
p406
S'NNP'
p407
tp408
a(Vroom
p409
g407
tp410
a(Vget
p411
S'NNP'
p412
tp413
a(Vpump
p414
g412
tp415
a(Voh
p416
S'NN'
p417
tp418
a(Vwait
p419
g417
tp420
a(Vn't
p421
S'RB'
p422
tp423
a(Vhav
p424
S'VB'
p425
tp426
a(Vpair
p427
S'NN'
p428
tp429
a(Vshoe
p430
S'NNS'
p431
tp432
a(Vmay
p433
S'NNP'
p434
tp435
a(Vborrow
p436
S'VBP'
p437
tp438
a(Vpair
p439
S'NN'
p440
tp441
a(Vsize
p442
g440
tp443
a(V55/6
p444
S'CD'
p445
tp446
a(Vcloys
p447
S'NN'
p448
tp449
a(Vtoe
p450
S'NN'
p451
tp452
a(Vheel
p453
S'NNS'
p454
tp455
a(Vsomeone
p456
S'NN'
p457
tp458
atp459
a(I0
(lp460
(Vresponse
p461
S'NN'
p462
tp463
a(Vnew
p464
S'JJ'
p465
tp466
a(Vguideline
p467
S'NNS'
p468
tp469
a(Vhereby
p470
S'VBP'
p471
tp472
a(Vdecal
p473
g465
tp474
a(Vcopyright
p475
g462
tp476
a(Vattach
p477
S'VBN'
p478
tp479
a(Vperson
p480
g465
tp481
a(Vdetail
p482
S'NNS'
p483
tp484
a(Vcontain
p485
S'VBN'
p486
tp487
a(Vperson
p488
S'JJ'
p489
tp490
a(Vbusy
p491
S'NN'
p492
tp493
a(Vprofile
p494
g483
tp495
a(Vinclude
p496
S'VBG'
p497
tp498
a(Vlimit
p499
g486
tp500
a(Vposting
p501
g483
tp502
a(Vupdate
p503
S'NNS'
p504
tp505
a(Vcomment
p506
g504
tp507
a(Villustration
p508
g504
tp509
a(Vpainting
p510
g504
tp511
a(Vdrawing
p512
g504
tp513
a(Vart
p514
S'NN'
p515
tp516
a(Vphotograph
p517
g504
tp518
a(Vmus
p519
S'JJ'
p520
tp521
a(Vvideo
p522
S'NNS'
p523
tp524
a(Vetc
p525
S'NNP'
p526
tp527
a(Vper
p528
S'JJR'
p529
tp530
a(Vtern
p531
g526
tp532
a(Vcon v
p533
g526
tp534
a(Vprotect
p535
g526
tp536
a(Vlit
p537
g526
tp538
a(Vart
p539
g526
tp540
a(V(
p541
S'NNP'
p542
tp543
a(Va/k/
p544
g542
tp545
a(Vtern
p546
g542
tp547
a(Vcon v
p548
g542
tp549
a(V)
p550
g542
tp551
a(Vcommerce
p552
S'NN'
p553
tp554
a(Vus
p555
g553
tp556
a(Vabove
p557
S'JJ'
p558
tp559
a(Vcons
p560
S'NN'
p561
tp562
a(Vrequire
p563
S'VBN'
p564
tp565
a(Vinst
p566
g561
tp567
a(Vtime
p568
S'NNP'
p569
tp570
a(Vpres
p571
g561
tp572
a(Vcommunique
p573
g561
tp574
a(Vstrictly
p575
S'RB'
p576
tp577
a(Vforbid
p578
g564
tp579
a(Vdisclose
p580
S'VB'
p581
tp582
a(Vcop
p583
g581
tp584
a(Vdistribute
p585
S'NN'
p586
tp587
a(Vdisseminate
p588
S'JJ'
p589
tp590
a(Vteak
p591
g581
tp592
a(Voath
p593
g589
tp594
a(Vact
p595
g586
tp596
a(Vbas
p597
g586
tp598
a(Vprofile
p599
S'NN'
p600
tp601
a(Vand/or
p602
g600
tp603
a(Vcontent
p604
S'NNP'
p605
tp606
a(Voaf
p607
S'VBD'
p608
tp609
a(Vprohibit
p610
S'VBN'
p611
tp612
a(Vaction
p613
S'NNS'
p614
tp615
a(Valso
p616
S'RB'
p617
tp618
a(Vapply
p619
g617
tp620
a(Vemployee
p621
S'NNS'
p622
tp623
a(Vstudent
p624
g622
tp625
a(Vagent
p626
g622
tp627
a(Vand/or
p628
S'JJ'
p629
tp630
a(Vstaff
p631
S'NN'
p632
tp633
a(Vundo
p634
S'IN'
p635
tp636
a(V's
p637
S'POS'
p638
tp639
a(Vdirect
p640
g632
tp641
a(Vcontrol
p642
S'NNP'
p643
tp644
a(Vcont
p645
S'NN'
p646
tp647
a(Vprofile
p648
g646
tp649
a(Vprivy
p650
S'JJ'
p651
tp652
a(Vconfide
p653
g651
tp654
a(Vinform
p655
g643
tp656
a(Vviol
p657
g646
tp658
a(Vprivy
p659
g646
tp660
a(Vpun
p661
S'VBN'
p662
tp663
a(Vlaw
p664
S'NN'
p665
tp666
a(Vu cc
p667
S'NNP'
p668
tp669
a(V1
p670
S'CD'
p671
tp672
a(V1-308-308
p673
g671
tp674
a(V1-103
p675
g671
tp676
a(Vroom
p677
g668
tp678
a(Vstatute
p679
g668
tp680
a(V)
p681
S'NNP'
p682
tp683
a(Vcanyon
p684
g682
tp685
a(Vread
p686
S'NN'
p687
tp688
a(Vcop
p689
S'VB'
p690
tp691
a(Vtext
p692
g687
tp693
a(Vpast
p694
g687
tp695
a(Vweal
p696
g682
tp697
a(Vthis
p698
g682
tp699
a(Vplace
p700
S'VB'
p701
tp702
a(Vundo
p703
S'IN'
p704
tp705
a(Vprotect
p706
S'NN'
p707
tp708
a(Vcopyright
p709
g707
tp710
a(Vlaw
p711
S'NNP'
p712
tp713
a(Vop
p714
S'JJ'
p715
tp716
a(Vcapita
p717
g707
tp718
a(Vwent
p719
g712
tp720
a(Val
p721
S'NNP'
p722
tp723
a(Vmember
p724
S'NNS'
p725
tp726
a(Var
p727
S'VBP'
p728
tp729
a(Vrecommend
p730
S'VBN'
p731
tp732
a(Vpub l
p733
S'VB'
p734
tp735
a(Vlink
p736
S'IN'
p737
tp738
a(Vpref
p739
g728
tp740
a(Vmay
p741
S'MD'
p742
tp743
a(Vcop
p744
S'VB'
p745
tp746
a(Vpast
p747
g745
tp748
a(Vvert
p749
S'NNP'
p750
tp751
a(Vpub l
p752
g745
tp753
a(Vleast
p754
S'JJS'
p755
tp756
a(Vwont
p757
S'RB'
p758
tp759
a(Vtacit
p760
g758
tp761
a(Vallow
p762
S'VBG'
p763
tp764
a(Vus
p765
S'NN'
p766
tp767
a(Velement
p768
S'NNS'
p769
tp770
a(Vphoto
p771
g769
tp772
a(Vwel
p773
S'RB'
p774
tp775
a(Vinform
p776
g766
tp777
a(Vcontain
p778
S'VBD'
p779
tp780
a(Vprofile
p781
g766
tp782
a(Vupdate
p783
S'VBZ'
p784
tp785
atp786
a(I23
(lp787
(Vword
p788
S'NN'
p789
tp790
a(Vmac
p791
S'NNP'
p792
tp793
atp794
a(I6
(lp795
(Vdownload
p796
S'VBD'
p797
tp798
a(V12th
p799
S'JJ'
p800
tp801
a(V``
p802
S'``'
p803
tp804
a(Vsafe
p805
S'NN'
p806
tp807
a(Vconnect
p808
S'NN'
p809
tp810
a(V''
p811
S"''"
p812
tp813
a(Vaft
p814
S'IN'
p815
tp816
a(Vcom
p817
S'VBG'
p818
tp819
a(VWilliam
p820
S'NNP'
p821
tp822
atp823
a(I24
(lp824
(Vback
p825
S'NNP'
p826
tp827
a(VWilliam
p828
S'NNP'
p829
tp830
a(Vdoe
p831
S'VBZ'
p832
tp833
a(Vhav
p834
S'VB'
p835
tp836
a(Vsum
p837
S'NN'
p838
tp839
a(V's
p840
S'VBZ'
p841
tp842
a(Vgorge
p843
S'JJ'
p844
tp845
atp846
a(I3
(lp847
(Vsweetest
p848
S'NNP'
p849
tp850
a(Vroom
p851
S'NN'
p852
tp853
a(Vexcessive
p854
S'IN'
p855
tp856
a(Valway
p857
S'RB'
p858
tp859
a(Vmake
p860
S'VBZ'
p861
tp862
a(Vcry
p863
S'VBP'
p864
tp865
a(S'leaf'
p866
S'VBZ'
p867
tp868
a(V>
p869
g15
tp870
a(Vo
p871
S'NN'
p872
tp873
a(Vmiss
p874
S'NNP'
p875
tp876
a(VKalil
p877
S'NNP'
p878
tp879
a(V3
p880
S'CD'
p881
tp882
a(Vhav
p883
S'NNP'
p884
tp885
a(Vnic
p886
S'JJ'
p887
tp888
atp889
a(I12
(lp890
(Vgot
p891
S'NNP'
p892
tp893
a(Vcutest
p894
S'JJS'
p895
tp896
a(Vcard
p897
S'NN'
p898
tp899
a(Vmail
p900
S'NN'
p901
tp902
a(Vtwenty
p903
S'NN'
p904
tp905
a(V1st
p906
S'CD'
p907
tp908
a(Vbirthday
p909
S'NN'
p910
tp911
a(Vleg
p912
S'JJ'
p913
tp914
a(V10
p915
S'CD'
p916
tp917
a(Vday
p918
S'NNS'
p919
tp920
a(V^~^
p921
g15
tp922
atp923
a(I9
(lp924
(Vgoing
p925
S'VBG'
p926
tp927
a(Vmi-am
p928
S'NNP'
p929
tp930
a(V26
p931
S'CD'
p932
tp933
a(Vmonth
p934
S'NNS'
p935
tp936
atp937
a(I21
(lp938
(V\u005c
p939
g15
tp940
a(V^~^
p941
g15
tp942
a(V/
p943
g15
tp944
atp945
a(I13
(lp946
(Vgot
p947
S'VBD'
p948
tp949
a(Vrevel
p950
S'NNS'
p951
tp952
a(Vinvite
p953
S'NN'
p954
tp955
a(Vmailbox
p956
S'NN'
p957
tp958
a(Vtoday
p959
S'NN'
p960
tp961
a(Vmiss
p962
S'NNP'
p963
tp964
a(Vem m
p965
S'NNP'
p966
tp967
a(V333
p968
S'CD'
p969
tp970
atp971
a(I3
(lp972
(Vconfirm
p973
S'VBD'
p974
tp975
a(Vfriend
p976
S'NN'
p977
tp978
a(Vgirl
p979
S'NN'
p980
tp981
a(Vchines
p982
S'JJ'
p983
tp984
a(Vvert
p985
S'NN'
p986
tp987
a(Vfob
p988
g986
tp989
a(Vak
p990
S'NN'
p991
tp992
a(Vrent
p993
S'NNS'
p994
tp995
a(VSamuel
p996
S'NNP'
p997
tp998
a(Vtrip
p999
g997
tp1000
a(Vknow
p1001
S'VBZ'
p1002
tp1003
a(V'm
p1004
S'VBP'
p1005
tp1006
a(Vtalk
p1007
S'VBG'
p1008
tp1009
a(Vabout~~
p1010
S'JJ'
p1011
tp1012
a(V)
p1013
S'NN'
p1014
tp1015
a(Vbecause
p1016
S'IN'
p1017
tp1018
a(Vnam
p1019
S'NN'
p1020
tp1021
a(Vmilt-on
p1022
g1020
tp1023
atp1024
a(I14
(lp1025
(Vwatch
p1026
S'VBD'
p1027
tp1028
a(Vkob
p1029
S'NNP'
p1030
tp1031
a(Vbury
p1032
S'NNP'
p1033
tp1034
a(Vplay
p1035
S'NN'
p1036
tp1037
a(Vbbl
p1038
S'NN'
p1039
tp1040
a(Vshanghai
p1041
S'NNP'
p1042
tp1043
atp1044
a(I5
(lp1045
(Vchil
p1046
S'NNP'
p1047
tp1048
a(Vsin-gap
p1049
S'NNP'
p1050
tp1051
atp1052
a(I18
(lp1053
(Vhom
p1054
S'NN'
p1055
tp1056
atp1057
a(I2
(lp1058
(Vflight
p1059
S'NN'
p1060
tp1061
a(Vcancel
p1062
S'VBD'
p1063
tp1064
atp1065
a(I15
(lp1066
tp1067
a(I13
(lp1068
(Vproud
p1069
S'NN'
p1070
tp1071
a(Vlove
p1072
S'JJ'
p1073
tp1074
a(Vem m
p1075
S'NN'
p1076
tp1077
a(Vgirl
p1078
S'NNS'
p1079
tp1080
a(Vclass
p1081
S'NN'
p1082
tp1083
a(V11
p1084
S'CD'
p1085
tp1086
a(Var
p1087
S'VBP'
p1088
tp1089
a(Vamaze
p1090
S'VBG'
p1091
tp1092
atp1093
a(I13
(lp1094
(Vhom
p1095
S'NN'
p1096
tp1097
atp1098
a(I1
(lp1099
(Vgo
p1100
S'VB'
p1101
tp1102
a(Vhom
p1103
S'RB'
p1104
tp1105
a(Vspring
p1106
S'NN'
p1107
tp1108
atp1109
a(I4
(lp1110
(Vholiday
p1111
S'NNP'
p1112
tp1113
atp1114
a(I1
(lp1115
(Vremind
p1116
S'VB'
p1117
tp1118
a(Vgive
p1119
S'VB'
p1120
tp1121
a(Vlucky
p1122
S'JJ'
p1123
tp1124
a(Vmoney
p1125
S'NN'
p1126
tp1127
a(Vcar
p1128
S'NN'
p1129
tp1130
a(V2011
p1131
S'CD'
p1132
tp1133
atp1134
a(I0
(lp1135
(V>
p1136
S'NN'
p1137
tp1138
a(V_
p1139
S'NNP'
p1140
tp1141
a(V<
p1142
S'NNP'
p1143
tp1144
a(Vsomeone
p1145
S'NN'
p1146
tp1147
a(Vneed
p1148
S'VBZ'
p1149
tp1150
a(Vweak
p1151
S'VB'
p1152
tp1153
a(Vhe-id
p1154
S'NNP'
p1155
tp1156
a(Vup~~~
p1157
S'NNP'
p1158
tp1159
atp1160
a(I0
(lp1161
(Vremind
p1162
S'VB'
p1163
tp1164
a(Vgive
p1165
S'VB'
p1166
tp1167
a(Vlucky
p1168
S'JJ'
p1169
tp1170
a(Vmoney
p1171
S'NN'
p1172
tp1173
a(Vbeef
p1174
S'IN'
p1175
tp1176
a(V2011~
p1177
S'CD'
p1178
tp1179
atp1180
a(I3
(lp1181
(Vtal
p1182
S'JJ'
p1183
tp1184
a(Vhe-id
p1185
S'NNP'
p1186
tp1187
a(Vhahahahahahahhahah
p1188
S'NNP'
p1189
tp1190
atp1191
a(I7
(lp1192
(Vpeople
p1193
S'NNS'
p1194
tp1195
a(Vhav
p1196
S'VBP'
p1197
tp1198
a(V1000
p1199
S'CD'
p1200
tp1201
a(VChristmas
p1202
S'NNP'
p1203
tp1204
a(Vcant
p1205
S'NN'
p1206
tp1207
a(Vpaty
p1208
g1206
tp1209
a(Vha
p1210
S'VBZ'
p1211
tp1212
a(Vget
p1213
S'VB'
p1214
tp1215
a(Vbet
p1216
S'NNP'
p1217
tp1218
a(Vknow
p1219
S'VBP'
p1220
tp1221
a(V97
p1222
S'CD'
p1223
tp1224
a(V%
p1225
S'NN'
p1226
tp1227
a(Vn't
p1228
S'RB'
p1229
tp1230
a(Vrepost
p1231
S'VB'
p1232
tp1233
a(Vfriend
p1234
S'NNS'
p1235
tp1236
a(V3
p1237
S'CD'
p1238
tp1239
a(V%
p1240
S'NN'
p1241
tp1242
a(Vhon
p1243
g1241
tp1244
a(Vsomeone
p1245
S'NN'
p1246
tp1247
a(Vha
p1248
S'VBZ'
p1249
tp1250
a(Vdied
p1251
S'VBN'
p1252
tp1253
a(Vstilt
p1254
S'RB'
p1255
tp1256
a(Vfight
p1257
S'VBG'
p1258
tp1259
a(Vsurvey
p1260
S'VBN'
p1261
tp1262
a(Vcant
p1263
S'NN'
p1264
tp1265
a(Vcop
p1266
g1264
tp1267
atp1268
a(I3
(lp1269
tp1270
a(I10
(lp1271
(Vgave
p1272
S'VBD'
p1273
tp1274
a(Vcont
p1275
S'NN'
p1276
tp1277
a(Vhwy
p1278
S'NN'
p1279
tp1280
a(Vtonight
p1281
S'NN'
p1282
tp1283
a(Vdecide
p1284
S'VBD'
p1285
tp1286
a(Vplan
p1287
S'NN'
p1288
tp1289
a(Vinstead
p1290
S'RB'
p1291
tp1292
atp1293
a(I6
(lp1294
(Vharry
p1295
S'NNP'
p1296
tp1297
a(Vpot
p1298
S'NNP'
p1299
tp1300
a(V1201am
p1301
S'CD'
p1302
tp1303
atp1304
a(I0
(lp1305
(Vcanyon
p1306
S'NN'
p1307
tp1308
a(Vknow
p1309
S'VBZ'
p1310
tp1311
a(Vget
p1312
S'VB'
p1313
tp1314
a(VAmherst
p1315
S'VB'
p1316
tp1317
a(Vtr
p1318
S'NN'
p1319
tp1320
atp1321
a(I5
(lp1322
(Vgot
p1323
S'VBD'
p1324
tp1325
a(Vrevel
p1326
S'NNS'
p1327
tp1328
a(Vinvite
p1329
S'NN'
p1330
tp1331
a(Vcard
p1332
S'NN'
p1333
tp1334
a(Vtoday
p1335
S'NN'
p1336
tp1337
a(Vexcite
p1338
S'NNP'
p1339
tp1340
atp1341
a(I0
(lp1342
(Vafter-halloween
p1343
S'JJ'
p1344
tp1345
a(Vstudy
p1346
S'NN'
p1347
tp1348
a(Vparty
p1349
S'NN'
p1350
tp1351
a(Vtonight
p1352
S'NN'
p1353
tp1354
atp1355
a(I6
(lp1356
(Vmidterm
p1357
S'NNS'
p1358
tp1359
atp1360
a(I2
(lp1361
(Vn't
p1362
S'RB'
p1363
tp1364
a(Vlog
p1365
S'VB'
p1366
tp1367
a(Vface-book
p1368
S'NN'
p1369
tp1370
a(Vaccount
p1371
S'NN'
p1372
tp1373
a(Vcompute
p1374
S'NN'
p1375
tp1376
a(Vlab
p1377
S'NN'
p1378
tp1379
a(V^_^
p1380
S'NN'
p1381
tp1382
atp1383
a(I0
(lp1384
(Vn't
p1385
S'RB'
p1386
tp1387
a(Vfeel
p1388
S'VB'
p1389
tp1390
a(Vlink
p1391
S'IN'
p1392
tp1393
atp1394
a(I0
(lp1395
(Vhappy
p1396
S'NN'
p1397
tp1398
a(Vmountain
p1399
S'NN'
p1400
tp1401
a(Vthank
p1402
S'NN'
p1403
tp1404
a(Vfrankly
p1405
S'NNP'
p1406
tp1407
a(Vswim
p1408
S'NNP'
p1409
tp1410
a(Vsave
p1411
S'VBG'
p1412
tp1413
a(Vwat
p1414
S'NN'
p1415
tp1416
a(Vbottle
p1417
S'NN'
p1418
tp1419
a(Vp
p1420
S'NN'
p1421
tp1422
atp1423
a(I1
(lp1424
(Vsaw
p1425
S'VBD'
p1426
tp1427
a(Vjean
p1428
S'NNP'
p1429
tp1430
a(VUlick
p1431
S'NNP'
p1432
tp1433
a(VMelisse
p1434
S'NNP'
p1435
tp1436
a(Vtoday
p1437
S'NN'
p1438
tp1439
a(Vmiss
p1440
S'VBP'
p1441
tp1442
a(V<
p1443
S'NN'
p1444
tp1445
a(V3
p1446
S'CD'
p1447
tp1448
atp1449
a(I3
(lp1450
(Vlove
p1451
S'NN'
p1452
tp1453
a(Vmuch
p1454
S'RB'
p1455
tp1456
a(Venough
p1457
S'RB'
p1458
tp1459
atp1460
a(I6
(lp1461
(Vcome
p1462
S'VBZ'
p1463
tp1464
a(Vtrim
p1465
S'NN'
p1466
tp1467
a(Vrevelry
p1468
S'NN'
p1469
tp1470
a(Veveryone
p1471
S'NN'
p1472
tp1473
a(Vgood
p1474
S'NN'
p1475
tp1476
a(Vluck
p1477
S'NN'
p1478
tp1479
a(Venjoy
p1480
S'NNP'
p1481
tp1482
atp1483
a(I1
(lp1484
(Vmoon
p1485
S'NNP'
p1486
tp1487
a(Vfest
p1488
S'NNP'
p1489
tp1490
atp1491
a(I0
(lp1492
(Vbirthday
p1493
S'NNP'
p1494
tp1495
a(Vmoos
p1496
S'NNP'
p1497
tp1498
atp1499
a(I3
(lp1500
(Vsang
p1501
S'VBP'
p1502
tp1503
a(Vlye
p1504
S'NNP'
p1505
tp1506
a(Vbeaux's
p1507
S'NN'
p1508
tp1509
a(Vchoir
p1510
g1508
tp1511
a(Vaudit
p1512
S'NNP'
p1513
tp1514
a(Vmiss
p1515
S'NN'
p1516
tp1517
a(Vem m
p1518
S'NN'
p1519
tp1520
a(Vchoir
p1521
g1519
tp1522
a(Vspiro
p1523
S'NNP'
p1524
tp1525
a(Vvoice
p1526
S'NN'
p1527
tp1528
a(Vlesson
p1529
S'NN'
p1530
tp1531
a(Vgroup
p1532
g1530
tp1533
a(Vdebar
p1534
S'NNP'
p1535
tp1536
a(Vspiro-allen
p1537
g1535
tp1538
a(VMadelin
p1539
S'NNP'
p1540
tp1541
a(Vchant
p1542
g1540
tp1543
a(V)
p1544
S'NNP'
p1545
tp1546
atp1547
a(I4
(lp1548
(Vfirst
p1549
S'JJ'
p1550
tp1551
a(Vcollege
p1552
S'NN'
p1553
tp1554
atp1555
a(I5
(lp1556
(Vgot
p1557
S'VBD'
p1558
tp1559
a(Vsick
p1560
S'NN'
p1561
tp1562
a(Vfirst
p1563
S'JJ'
p1564
tp1565
a(Vory
p1566
S'NN'
p1567
tp1568
a(Vlove
p1569
S'VBZ'
p1570
tp1571
a(Ventry
p1572
S'NN'
p1573
tp1574
a(Vmate
p1575
S'NNS'
p1576
tp1577
a(V@
p1578
g15
tp1579
a(VWilliam
p1580
S'NNS'
p1581
tp1582
atp1583
a(I1
(lp1584
(Vtap
p1585
S'NNP'
p1586
tp1587
a(Vfore v
p1588
S'NNP'
p1589
tp1590
a(Vrev
p1591
S'NNP'
p1592
tp1593
a(Vpeevers
p1594
S'NNP'
p1595
tp1596
atp1597
a(I1
(lp1598
(Vlearn
p1599
S'VBD'
p1600
tp1601
a(Vclosest
p1602
S'JJS'
p1603
tp1604
a(Vmal
p1605
S'NN'
p1606
tp1607
a(VWilliam
p1608
S'NNP'
p1609
tp1610
a(Vcrossgates~~
p1611
S'-NONE-'
p1612
tp1613
a(V#
p1614
S'#'
p1615
tp1616
a(V%
p1617
S'NN'
p1618
tp1619
atp1620
a(I1
(lp1621
(Vhappy
p1622
S'NN'
p1623
tp1624
a(Vsnow
p1625
S'VBD'
p1626
tp1627
atp1628
a(I0
(lp1629
(VShannah
p1630
S'NNP'
p1631
tp1632
a(Vbow
p1633
S'NNP'
p1634
tp1635
atp1636
a(I0
(lp1637
(Vface-book
p1638
S'VB'
p1639
tp1640
atp1641
a(I1
(lp1642
(Vsing
p1643
S'VBG'
p1644
tp1645
a(Vdaunt
p1646
S'VBG'
p1647
tp1648
a(Vrevels-ing
p1649
S'JJ'
p1650
tp1651
atp1652
a(I0
(lp1653
(Vbow
p1654
S'NNP'
p1655
tp1656
atp1657
a(I1
(lp1658
(Vtomorrow
p1659
S'NN'
p1660
tp1661
a(VWednesday
p1662
S'NNP'
p1663
tp1664
atp1665
a(I2
(lp1666
(Vus
p1667
S'VB'
p1668
tp1669
a(Vface-book
p1670
S'NN'
p1671
tp1672
atp1673
a(I0
(lp1674
(Vstilt
p1675
S'RB'
p1676
tp1677
a(Vcloudy
p1678
S'JJ'
p1679
tp1680
a(V>
p1681
S'NN'
p1682
tp1683
a(Vwant
p1684
S'VBP'
p1685
tp1686
a(Vsee
p1687
S'VB'
p1688
tp1689
a(Veclipse
p1690
S'NN'
p1691
tp1692
atp1693
a.