c__builtin__
set
p0
((lp1
Vheart
p2
aVbecause
p3
aVlove
p4
aVspring
p5
aVdescribe
p6
aVwhere v
p7
aVsemester
p8
aVmiss
p9
aVcity
p10
aVwould
p11
aVmind-blowing
p12
aVstool
p13
aVhat
p14
aVfriend
p15
aVBudapest
p16
aVwa
p17
aVmem
p18
aVjoy
p19
aVsorrow
p20
aVstay
p21
aVput
p22
aVlost
p23
aVabsolve
p24
aVcal
p25
aVlaughter
p26
atp27
Rp28
.