c__builtin__
set
p0
((lp1
Vcity
p2
aVBudapest
p3
aVbecause
p4
aVlove
p5
aVwould
p6
aVlost
p7
aVheart
p8
aVspring
p9
aVdescribe
p10
aVabsolve
p11
aVstay
p12
aVwhere v
p13
aVsemester
p14
aVmind-blowing
p15
aVcal
p16
aVput
p17
aVlaughter
p18
aVmiss
p19
aVfriend
p20
aVhat
p21
atp22
Rp23
.