c__builtin__
set
p0
((lp1
S'show'
p2
aS'Muong'
p3
aS'sleep'
p4
aS'milk'
p5
aS'tin'
p6
aS'nostalgic'
p7
aVchar-act
p8
aS'familiar'
p9
aS'zig l'
p10
aVwatch
p11
aS'da'
p12
aS'five'
p13
aS'15'
p14
aS'minute'
p15
aS'success'
p16
aS'chuck'
p17
aS'bay'
p18
aVdestiny\u201d
p19
aS'night'
p20
aVbecome
p21
aV16th
p22
aS'everyone'
p23
aVhabit
p24
aS'some'
p25
aVhair
p26
aS'sight'
p27
aS'year'
p28
aV11th
p29
aS'est'
p30
aS'ch-en'
p31
aS'away'
p32
aV14th
p33
aS'lug'
p34
aS'new'
p35
aS'prob'
p36
aV15th
p37
aS'thong'
p38
aS'dung'
p39
aS'last'
p40
aS'n ha'
p41
aS'study'
p42
aS'keep'
p43
aS'fly n'
p44
aS'Dachau'
p45
aVthink
p46
aS'first'
p47
aS'love'
p48
aS'feel'
p49
aS'ca'
p50
aS'2nd'
p51
aS'gluon'
p52
aS'fresh m'
p53
aS'jays'
p54
aS'span'
p55
aS'ft w'
p56
aVlong
p57
aS'start'
p58
aS'fought'
p59
aS'he-id'
p60
aS'lot'
p61
aS'morn'
p62
aS'happy'
p63
aS'head'
p64
aS'interest'
p65
aS'heal'
p66
aS'park'
p67
aS'tic h'
p68
aS'moil'
p69
aS'transl'
p70
aVword
p71
aS'scarlet'
p72
aS'challenge'
p73
aS'1202am'
p74
aS'tree'
p75
aS'bias'
p76
aS'voe'
p77
aVphil
p78
aVkart
p79
aS'awesome'
p80
aS'bidet'
p81
aS'deer'
p82
aS'post-halloween'
p83
aS'autumn'
p84
aVlye
p85
aS'tag'
p86
aS'breakfast'
p87
aS'saw'
p88
aS'tho'
p89
aS'end'
p90
aS'min'
p91
aS')'
p92
aS'na'
p93
aS'nam'
p94
aS'til'
p95
aS'hot'
p96
aS'yang'
p97
aS'place'
p98
aS'mung'
p99
aS'mat'
p100
aS'foal'
p101
aS'drink'
p102
aS'rain'
p103
aS"'d"
p104
aVkim
p105
aS"'m"
p106
aS'rest a'
p107
aVoyster
p108
aS'invest'
p109
aS'no'
p110
aS'ko'
p111
aV23rd
p112
aVthought
p113
aVCongo
p114
aVjean
p115
aS'sum'
p116
atp117
Rp118
.