c__builtin__
set
p0
((lp1
S'show'
p2
aS'25-27'
p3
aS'sleep'
p4
aS'milk'
p5
aS'blow'
p6
aS'Friday'
p7
aS'nostalgic'
p8
aVchar-act
p9
aS'familiar'
p10
aS'zig l'
p11
aVwatch
p12
aS'five'
p13
aVword
p14
aS'rofl'
p15
aS'ther'
p16
aS'success'
p17
aVdestiny\u201d
p18
aVbecome
p19
aS'grab'
p20
aV16th
p21
aS'because'
p22
aVhabit
p23
aVhair
p24
aS'sight'
p25
aS'year'
p26
aV11th
p27
aS'ch-en'
p28
aS'away'
p29
aV14th
p30
aS'Massachusetts'
p31
aS'lug'
p32
aS'new'
p33
aV15th
p34
aS'let'
p35
aS'22-23'
p36
aS'study'
p37
aS'keep'
p38
aS'fly n'
p39
aS'place'
p40
aS'pick'
p41
aVthink
p42
aS'first'
p43
aS'love'
p44
aS'feel'
p45
aS'ca'
p46
aS'2nd'
p47
aS'everyone'
p48
aS'jays'
p49
aVlong
p50
aS'he-id'
p51
aS'interest'
p52
aS'happy'
p53
aS'lot'
p54
aS'heal'
p55
aS'park'
p56
aS'transl'
p57
aS'15'
p58
aS'wily'
p59
aS'hour'
p60
aS'challenge'
p61
aS'tree'
p62
aVkart
p63
aS'awesome'
p64
aS'deer'
p65
aS'autumn'
p66
aVlye
p67
aS'tag'
p68
aS'breakfast'
p69
aS'saw'
p70
aS'end'
p71
aS'lin'
p72
aS'nam'
p73
aS'hot'
p74
aS'yang'
p75
aS'nyc'
p76
aS'coff'
p77
aS'may'
p78
aS'foal'
p79
aS'rain'
p80
aS'fart'
p81
aVkim
p82
aS'rest a'
p83
aVoyster
p84
aS'invest'
p85
aVphil
p86
aV23rd
p87
aVthought
p88
aVCongo
p89
aVjean
p90
aS'sum'
p91
atp92
Rp93
.