(lp0
(I2
(lp1
S'thanks g'
p2
aS'@'
p3
aS'nyc'
p4
aS'11/27-12/1'
p5
aS'Thompson'
p6
aS'hotel'
p7
atp8
a(I6
(lp9
Vboston
p10
aVdeco
p11
aV14th
p12
aV15th
p13
aVphil
p14
aVdeco
p15
aV16th
p16
aVdeco
p17
aV22nd
p18
aVh cm
p19
aVdeco
p20
aV23rd
p21
aVjean
p22
aV11th
p23
aVlong
p24
aVkim
p25
aVlye
p26
aVCongo
p27
aVhair
p28
aVtu\u1ea5n
p29
aVkart
p30
atp31
a(I15
(lp32
S'boston'
p33
aS'2014'
p34
atp35
a(I2
(lp36
S'show'
p37
aS'he-id'
p38
aS'ch-en'
p39
atp40
a(I2
(lp41
S'common'
p42
atp43
a(I3
(lp44
S'phon'
p45
aS'step'
p46
aS'20'
p47
aS'email/fb'
p48
atp49
a(I4
(lp50
NaS'boston'
p51
aS'show'
p52
aS'he-id'
p53
aS'ch-en'
p54
aS'tonight'
p55
aS'last'
p56
aS'sum'
p57
aS'night'
p58
aS'boston'
p59
aS'roxy'
p60
aS'wang'
p61
aS'yang'
p62
aS'lug'
p63
atp64
a(I1
(lp65
S'fix'
p66
aS'income'
p67
aS'expert'
p68
aS'around'
p69
aS'let'
p70
aS'chat'
p71
atp72
a(I4
(lp73
S'da'
p74
aS'mat'
p75
aS'tic h'
p76
aS'ban'
p77
aS'no'
p78
aS'bidet'
p79
aS'thong'
p80
aS'tin'
p81
aS'lien'
p82
aS'@'
p83
aS'@'
p84
atp85
a(I13
(lp86
S'Massachusetts'
p87
aS'institute'
p88
aS'technology'
p89
aS'omit'
p90
atp91
a(I6
(lp92
S'college'
p93
atp94
a(I7
(lp95
S'Massachusetts'
p96
aS'may'
p97
aS'22-23'
p98
aS'nyc'
p99
aS'may'
p100
aS'25-27'
p101
aS'let'
p102
aS'grab'
p103
aS'coff'
p104
atp105
a(I3
(lp106
S'best'
p107
aS'wreath'
p108
aS'far'
p109
atp110
a(I9
(lp111
S'2nd'
p112
aS'ca'
p113
aS'invest'
p114
aS'challenge'
p115
aS'yang'
p116
aS'lug'
p117
aS'show'
p118
aS'he-id'
p119
aS'ch-en'
p120
aS'tag'
p121
aS'fly n'
p122
atp123
a(I1
(lp124
S'thank'
p125
aS'everyone'
p126
aS'bud'
p127
aS'wish'
p128
aS'wa'
p129
aS'indeed'
p130
aS'blast'
p131
atp132
a(I4
(lp133
S'nyc'
p134
aS'hit'
p135
atp136
a(I1
(lp137
S'oi'
p138
aS'e'
p139
aS'phew'
p140
aS'quern'
p141
aS'het'
p142
aS'dung'
p143
aS'voe'
p144
atp145
a(I5
(lp146
S'bay'
p147
aS'ko'
p148
aS'bidet'
p149
aS'dung'
p150
aS'voe'
p151
aS'gluon'
p152
atp153
a(I3
(lp154
S'much'
p155
aS'nee'
p156
aS'spring'
p157
aS'break'
p158
aS'rev'
p159
aS'begin'
p160
atp161
a(I4
(lp162
S'way'
p163
aS'mask'
p164
aS'simply'
p165
aS'obey'
p166
aS'deficiency'
p167
aS'oath'
p168
aS'way'
p169
aS'mask'
p170
aS'comply'
p171
aS'obey'
p172
aS'deficiency'
p173
aS'hoar'
p174
atp175
a(I1
(lp176
S'no i'
p177
aS'boy'
p178
aS'git'
p179
aS'co'
p180
atp181
a(I14
(lp182
S'chuck'
p183
aS'mung'
p184
aS'nam'
p185
aS'moil'
p186
atp187
a(I2
(lp188
S'tut'
p189
aS'member'
p190
aS'cho'
p191
aS'club'
p192
aS'292'
p193
aS'sublet'
p194
aS'3rd'
p195
aS'room'
p196
aS'ye u'
p197
aS'ca u'
p198
aS'tango'
p199
aS'thin'
p200
aS'khan'
p201
aS'tong'
p202
aS'nguc'
p203
aS'='
p204
aS'34'
p205
aS'ban'
p206
aS'no'
p207
aS'interest'
p208
aS'lien'
p209
aS'va'
p210
aS'de'
p211
aS'bidet'
p212
aS'chi'
p213
aS'tie t'
p214
aS'n he'
p215
atp216
a(I12
(lp217
S'happy'
p218
aS'year'
p219
aS'everyone'
p220
aS'success'
p221
aS'happy'
p222
aS'heal'
p223
atp224
a(I20
(lp225
S'sun'
p226
aS'warm'
p227
aS'resort'
p228
aS'Orlando'
p229
aS'florid'
p230
atp231
a(I5
(lp232
S'us'
p233
atp234
a(I6
(lp235
S'boston'
p236
aS'yet'
p237
aS'void'
p238
atp239
a(I0
(lp240
S'cu o'
p241
aS'nam'
p242
aS'nay'
p243
aS'co'
p244
aS'phi'
p245
aS'conga'
p246
aS'no'
p247
aS'o'
p248
aS'Vietnam'
p249
aS'Saigon'
p250
aS'ko'
p251
aS'pm'
p252
aS'n he'
p253
atp254
a(I0
(lp255
S'rip'
p256
aS'zig'
p257
aS'zig l'
p258
atp259
a(I4
(lp260
S'start'
p261
aS'drink'
p262
aS'scarlet'
p263
aS'wed'
p264
aS'morn'
p265
aS'voe'
p266
aS'n ha'
p267
aS'Muong'
p268
aS'bias'
p269
aS'no'
p270
atp271
a(I0
(lp272
S'thank'
p273
aS'omit'
p274
aS'harley'
p275
aS'truing'
p276
aS'--'
p277
aS'175'
p278
aS'gob'
p279
aS'drop-box'
p280
aS'space'
p281
aS'aft'
p282
aS'setup'
p283
atp284
a(I3
(lp285
S'weekend'
p286
aS'nay'
p287
aS'co'
p288
aS'neon'
p289
aS'bay'
p290
aS'ko'
p291
aS'n hi'
p292
aS'harley'
p293
aS'truing'
p294
atp295
a(I2
(lp296
S'silver'
p297
aS'lin'
p298
aS'end'
p299
atp300
a(I3
(lp301
S'prob'
p302
aS'beauty'
p303
aS'spring'
p304
atp305
a(I0
(lp306
S'test'
p307
aS'roi'
p308
aS'ah'
p309
atp310
a(I0
(lp311
S'ca'
p312
aS'believe'
p313
aS'ova'
p314
aS'high'
p315
aS'high'
p316
aS'high'
p317
atp318
a(I0
(lp319
tp320
a(I0
(lp321
S'fin'
p322
atp323
a(I0
(lp324
S'all-nighter'
p325
aNaS'beast'
p326
aNaS'machin'
p327
aNaS'oil'
p328
aS'ready'
p329
atp330
a(I0
(lp331
S'strange'
p332
aS'wint'
p333
atp334
a(I1
(lp335
S'everybody'
p336
aS'need'
p337
aS'break'
p338
atp339
a(I0
(lp340
S'boston'
p341
aS'tomorrow'
p342
aS'afternoon'
p343
aS'text'
p344
atp345
a(I0
(lp346
S'slept'
p347
aS'2'
p348
aS'hour'
p349
aS'saw y'
p350
aS'yawn'
p351
atp352
a(I0
(lp353
S'debt'
p354
aS'deal'
p355
atp356
a(I0
(lp357
S'f ml'
p358
aS'post-homecomng'
p359
aS'syndrome'
p360
aS'rush'
p361
aS'quant'
p362
atp363
a(I2
(lp364
S'thy'
p365
aS'than h'
p366
aS'p hung'
p367
aS'cam'
p368
aS'Dachau'
p369
aS'vow'
p370
aS'Ania'
p371
aS'Congo'
p372
aS'vint'
p373
aS'p ham'
p374
aS'support'
p375
aS'n hi'
p376
aS'6'
p377
aS'pm'
p378
aS'Saigon'
p379
aS'n he'
p380
atp381
a(I0
(lp382
S'cal'
p383
aS'foal'
p384
aS'misplace'
p385
aS'scaly'
p386
atp387
a(I0
(lp388
S'indulge'
p389
atp390
a(I0
(lp391
S'snow'
p392
aS'u nus'
p393
aS'heavy'
p394
aS'start'
p395
atp396
a(I0
(lp397
S'eu'
p398
aS'freak'
p399
aS'stubborn'
p400
aS'damn'
p401
aS'long'
p402
aS'stock'
p403
aS'short'
p404
aS'bond'
p405
aS'go'
p406
aS'$'
p407
atp408
a(I0
(lp409
S'apply'
p410
aS'big'
p411
aS'earn'
p412
aS'revenue'
p413
aS'share'
p414
aS'tumble'
p415
aS'ova'
p416
aS'7'
p417
aS'%'
p418
aS'after-hours'
p419
atp420
a(I0
(lp421
S'ache'
p422
atp423
a(I1
(lp424
S'nee'
p425
aS'oil'
p426
atp427
a(I2
(lp428
Vknowledge
p429
aVheart
p430
aVbeyond
p431
aVreach
p432
aVproof\u201d
p433
aVKahlil
p434
aVgiber
p435
aVquote
p436
atp437
a(I1
(lp438
S'go'
p439
aS'baby'
p440
atp441
a(I0
(lp442
S'people'
p443
aS'teak'
p444
aS'path'
p445
aS'least'
p446
aS'resist'
p447
atp448
a(I3
(lp449
S'lift'
p450
aS'rid'
p451
aS'bicycle'
p452
aS'keep'
p453
aS'bal'
p454
aS'must'
p455
aS'keep'
p456
aS'move'
p457
aS'albert'
p458
aS'Weinstein'
p459
atp460
a(I2
(lp461
S'aaaaaaaaaaaaaaaaaaaaaaaaaaaaaaaaaaaaaaaaaaaaaaaaaaaa'
p462
atp463
a(I0
(lp464
S'lot'
p465
aS'work'
p466
atp467
a(I2
(lp468
S'read'
p469
aS'period'
p470
aS'mountain'
p471
aS'com'
p472
aS'rescue'
p473
atp474
a(I1
(lp475
S'nice-guy'
p476
aS'empire'
p477
atp478
a(I3
(lp479
S'alway'
p480
aS'homework'
p481
atp482
a(I1
(lp483
S'party'
p484
aS'party'
p485
atp486
a(I2
(lp487
S'endless'
p488
atp489
a(I0
(lp490
S'crash'
p491
aS'pandemic'
p492
atp493
a(I0
(lp494
S'sigh'
p495
aS'sigh'
p496
aS'sigh'
p497
atp498
a(I6
(lp499
Vthought
p500
aVbecome
p501
aVword
p502
aVwatch
p503
aVword
p504
aVbecome
p505
aVaction
p506
aVwatch
p507
aVaction
p508
aVbecome
p509
aVhabit
p510
aVwatch
p511
aVhabit
p512
aVbecome
p513
aVchar-act
p514
aVwatch
p515
aVchar-act
p516
aVbecome
p517
aVdestiny\u201d
p518
aVzig
p519
aVzig l
p520
aVkeep
p521
aVthink
p522
aVoyster
p523
atp524
a(I0
(lp525
S'word'
p526
atp527
a(I2
(lp528
S'v ac'
p529
atp530
a(I0
(lp531
S'crash'
p532
aS'boom'
p533
atp534
a(I1
(lp535
S'crash'
p536
aS'baby'
p537
aS'v ac'
p538
aS'ahead'
p539
atp540
a(I1
(lp541
S'freak'
p542
aS'freeze'
p543
aS'wint'
p544
aS'cloth'
p545
atp546
a(I4
(lp547
S'sentry'
p548
aS'first'
p549
aS'week'
p550
atp551
a(I1
(lp552
S'okay'
p553
aS'learn'
p554
atp555
a(I2
(lp556
S'antifreeze'
p557
atp558
a(I8
(lp559
S'first'
p560
aS'first'
p561
aS'Friday'
p562
aS'pick'
p563
aS'lin'
p564
aS'fart'
p565
aS'because'
p566
aS'blow'
p567
aS'away'
p568
aS"''"
p569
aS'rofl'
p570
atp571
a(I7
(lp572
S'class'
p573
aS'semester'
p574
aS'awesome'
p575
atp576
a(I0
(lp577
S'body'
p578
aS'ache'
p579
atp580
a(I1
(lp581
S'tree'
p582
aS'chang'
p583
aS'color'
p584
atp585
a(I4
(lp586
S'love'
p587
aS'wreath'
p588
aS'mom'
p589
atp590
a(I5
(lp591
S'routing'
p592
aS'goo g'
p593
atp594
a(I14
(lp595
S'aft'
p596
aS'15'
p597
aS'hour'
p598
aS'sleep'
p599
aS'nostalgic'
p600
aS'familiar'
p601
aS'rain'
p602
aS'tree'
p603
aS'breakfast'
p604
aS'hot'
p605
aS'milk'
p606
aS'cool'
p607
aS'sum'
p608
aS'end'
p609
aS'autumn'
p610
aS'study'
p611
atp612
a(I3
(lp613
tp614
a(I5
(lp615
S'fly'
p616
atp617
a(I0
(lp618
S'real'
p619
aS'forgot'
p620
aS'much'
p621
atp622
a(I2
(lp623
S'weak'
p624
aS'sunset'
p625
aS'drive'
p626
aS'mad'
p627
aS'bad'
p628
atp629
a(I6
(lp630
S'tien'
p631
aS'ankh'
p632
aS'k hong'
p633
aS'thief'
p634
aS'ca'
p635
aS'chin h'
p636
aS'em'
p637
aS'p ha'
p638
aS'hu'
p639
atp640
a(I3
(lp641
S'pink'
p642
aS'spoil'
p643
atp644
a(I0
(lp645
S'fail'
p646
aS'plan'
p647
aS'di'
p648
aS'cat'
p649
aS'to'
p650
aS'c hung'
p651
aS'qua'
p652
aS'Dachau'
p653
aS'vow'
p654
aS'n hat'
p655
atp656
a(I1
(lp657
S'http'
p658
aS'//newsbbccouk/sport2/hi/tennis/13657050stm'
p659
atp660
a(I4
(lp661
S'caught'
p662
aS'crash'
p663
aS'mad'
p664
aS'money'
p665
atp666
a(I0
(lp667
S'9pm-4am'
p668
atp669
a(I4
(lp670
S'jet'
p671
aS'lag'
p672
aS'make'
p673
aS'perfect'
p674
aS'overnight'
p675
aS'party'
p676
atp677
a(I2
(lp678
S'vietnam-party-intensive'
p679
aS'got'
p680
aS'ta'
p681
aS'chil'
p682
atp683
a(I2
(lp684
S'0908906329'
p685
aS'party'
p686
atp687
a(I2
(lp688
S'richen'
p689
aS'airport'
p690
aS'snack'
p691
aS'shop'
p692
atp693
a(I5
(lp694
S'duly'
p695
aS'fly'
p696
aS'so'
p697
atp698
a(I2
(lp699
S'doc'
p700
atp701
a(I2
(lp702
S'stew'
p703
atp704
a(I6
(lp705
S'fresh m'
p706
aS'year'
p707
aS'fought'
p708
aS'til'
p709
aS'last'
p710
aS'minute'
p711
aS'ft w'
p712
atp713
a(I2
(lp714
S'6205'
p715
aS'word'
p716
aS'gig'
p717
aS'prof'
p718
atp719
a(I2
(lp720
S'pang'
p721
aS'39'
p722
aS'word'
p723
aS'5500'
p724
atp725
a(I1
(lp726
S'last'
p727
aS'push'
p728
atp729
a(I0
(lp730
S'next'
p731
aS'push'
p732
atp733
a(I2
(lp734
S'yay'
p735
aS'yay'
p736
aS'yay'
p737
aS'csdgosdhghdklhgjkvb'
p738
aS'hfbedvjsdhfskagdfjashbd'
p739
atp740
a(I0
(lp741
S'screwed'
p742
aS'screwed'
p743
aS'screwed'
p744
atp745
a(I0
(lp746
S'crash'
p747
atp748
a(I1
(lp749
S'gam'
p750
atp751
a(I1
(lp752
S'u'
p753
aS'doll'
p754
aS'stop'
p755
aS'apparency'
p756
atp757
a(I1
(lp758
S'ready'
p759
aS'kick'
p760
aS'some'
p761
aS'puppy'
p762
atp763
a(I3
(lp764
S'get'
p765
ag753
aS'doll'
p766
atp767
a(I0
(lp768
S'thrive'
p769
atp770
a(I2
(lp771
S'light'
p772
atp773
a(I1
(lp774
S'cant'
p775
aNaS'sign'
p776
atp777
a(I0
(lp778
S'icon'
p779
aS'av l'
p780
aS'ax t'
p781
atp782
a(I0
(lp783
S'icon'
p784
aS'win'
p785
atp786
a(I1
(lp787
S'dcmvclcmnucddd'
p788
aS'met'
p789
atp790
a(I4
(lp791
S'sin-gap'
p792
atp793
a(I0
(lp794
S'ready'
p795
aS'crash'
p796
aS'18'
p797
aS'hr'
p798
atp799
a(I0
(lp800
S'big'
p801
aS'load'
p802
aNaS'inform'
p803
aS'rev'
p804
aS'decision'
p805
aS'mad'
p806
atp807
a(I2
(lp808
S'ca'
p809
aS'go'
p810
aS'boston'
p811
aS'tomorrow'
p812
aS'thx'
p813
aS'wa'
p814
aNaS'last'
p815
aS'week'
p816
aS'hel'
p817
aS'ye'
p818
aS'want'
p819
aS'restart'
p820
aS'another'
p821
aS'round'
p822
aS'o'
p823
aS'm'
p824
aS'g'
p825
atp826
a(I0
(lp827
S'ogre'
p828
aS'start'
p829
aS'beauty'
p830
atp831
a(I0
(lp832
S'upgrade'
p833
aS'blab'
p834
atp835
a(I1
(lp836
S'stress'
p837
aS'level'
p838
aS'spike'
p839
aS'post'
p840
aS'mid-terms'
p841
atp842
a(I0
(lp843
S'reply'
p844
aS'ac-cum'
p845
aS'email'
p846
aS'aft'
p847
aS'mid-terms'
p848
atp849
a(I3
(lp850
S'spring'
p851
atp852
a(I1
(lp853
S'attempt'
p854
aS'us'
p855
aS'idiom'
p856
aNaS'drive'
p857
aS"''"
p858
aS'mistook'
p859
aS'back-do'
p860
aS'drive'
p861
aS"''"
p862
aS'f'
p863
aS'm'
p864
aS'l'
p865
atp866
a(I2
(lp867
S'got'
p868
aS'knock'
p869
aS'stand'
p870
atp871
a(I1
(lp872
S'sun'
p873
atp874
a(I1
(lp875
S'jap'
p876
aS'good'
p877
aS'luck'
p878
aS'stop'
p879
aS'spoil'
p880
aS'party'
p881
atp882
a(I3
(lp883
S'ope c'
p884
aS'joke'
p885
aS'lol'
p886
aS'want'
p887
aS'high'
p888
aS'oil'
p889
aS'prick'
p890
aS'care'
p891
aS'economy'
p892
aS'grow'
p893
aS'good'
p894
atp895
a(I10
(lp896
S'wreath'
p897
aS'deserve'
p898
aS'middle'
p899
aS'fling'
p900
atp901
a(I4
(lp902
S'antifreeze'
p903
aS'awesome'
p904
atp905
a(I0
(lp906
S'bought'
p907
aS'usurp'
p908
aNatp909
a(I3
(lp910
S'quark'
p911
aS'ind-ones'
p912
aS'sou'
p913
aS'east'
p914
atp915
a(I2
(lp916
S'economy'
p917
aS'cure'
p918
aS'216000'
p919
aS'job'
p920
aS'march'
p921
aS'unemploy'
p922
aS'rat'
p923
aS'drop'
p924
aS'88'
p925
aS'%'
p926
aS'bet'
p927
aS'expect'
p928
aS'ogre'
p929
aS'birthday'
p930
aS'win'
p931
aS'duh'
p932
atp933
a(I1
(lp934
S'mean'
p935
aS'birthday'
p936
aS'wish'
p937
aS'v'
p938
aS'pray'
p939
ag753
aS'march'
p940
aS'job'
p941
aS'report'
p942
aS'210000'
p943
aS'fed'
p944
aS'continue'
p945
aS'qe2'
p946
aS'nevi'
p947
aS'rev'
p948
aS'meant'
p949
aS'qe3'
p950
aS'spy'
p951
aS'rial'
p952
aS'above'
p953
aS'1330'
p954
ag753
aS'win'
p955
aS'duh'
p956
aS'thank'
p957
aS'guy'
p958
aS'sweet'
p959
aS'birthday'
p960
aS'wish'
p961
aS'person'
p962
aS'reply'
p963
aS'spasm'
p964
aS'soon'
p965
aS'crook'
p966
aS'fraud'
p967
aS'liq u'
p968
aS'sex'
p969
aS'peach'
p970
aS'wound'
p971
aS'mind'
p972
aS'cheer'
p973
atp974
a(I0
(lp975
S'track'
p976
aS'win'
p977
aS'duh'
p978
atp979
a(I0
(lp980
S'caught'
p981
aS'biz'
p982
aS'+'
p983
aS'2'
p984
aS'breakout'
p985
aS'week'
p986
aS'awesome'
p987
atp988
a(I0
(lp989
S'noth'
p990
aS'els'
p991
aS'matter'
p992
aS'march'
p993
aS'job'
p994
aS'report'
p995
aS'Friday'
p996
atp997
a(I0
(lp998
S'ca'
p999
aS'fathom'
p1000
aS'thous'
p1001
aS'prick'
p1002
aS'slip'
p1003
aS'cos-um'
p1004
aS'confide'
p1005
aS'slip'
p1006
aS'expect'
p1007
aS'market'
p1008
aS'rally'
p1009
aS'crack-head'
p1010
atp1011
a(I2
(lp1012
S'funny'
p1013
aS'oil'
p1014
aS'tank'
p1015
aS'got'
p1016
aS'hijack'
p1017
aS'pirate'
p1018
aS'bomb'
p1019
aS'threat'
p1020
aS'apply'
p1021
aS'soil'
p1022
aS'risk'
p1023
aS'chao'
p1024
aS'spread'
p1025
ag753
atp1026
a(I0
(lp1027
S'pirate'
p1028
aS'hijack'
p1029
aS'oil'
p1030
aS'tank'
p1031
aS'lol'
p1032
atp1033
a(I0
(lp1034
S'stock'
p1035
aS'in-it'
p1036
aS'par'
p1037
aS'loss'
p1038
aS'move'
p1039
aS'slight'
p1040
aS'high'
p1041
aS'aft'
p1042
aS'consume'
p1043
aS'sentry'
p1044
aS'fuel'
p1045
aS'expect'
p1046
aS'march'
p1047
aS"''"
p1048
aS'cnbc'
p1049
aS'dumb'
p1050
atp1051
a(I0
(lp1052
S're-think'
p1053
aS'bull'
p1054
aS'sud'
p1055
aS'idea'
p1056
aS'strike'
p1057
aS'anytime'
p1058
aNaS'chao'
p1059
atp1060
a(I0
(lp1061
S'earthquake'
p1062
aS'Thailand'
p1063
atp1064
a(I0
(lp1065
S'mu'
p1066
atp1067
a(I0
(lp1068
S'mom'
p1069
aS'true'
p1070
atp1071
a(I2
(lp1072
S'ching'
p1073
aS'c hong'
p1074
aS'ling'
p1075
aS'long'
p1076
aS'ting'
p1077
aS'tong'
p1078
aS'canyon'
p1079
atp1080
a(I0
(lp1081
S'beauty'
p1082
aS'fin'
p1083
aS'ogre'
p1084
aS'week'
p1085
atp1086
a(I0
(lp1087
S'risk'
p1088
aS'tid'
p1089
atp1090
a(I0
(lp1091
S'beauty'
p1092
aS'fin'
p1093
aS'biz'
p1094
atp1095
a(I0
(lp1096
S'eu'
p1097
aS'energy'
p1098
aS'min'
p1099
aS'jam'
p1100
aS'market'
p1101
aS'unsubstantial'
p1102
aNatp1103
a(I0
(lp1104
S'hang'
p1105
aS'biz'
p1106
atp1107
a(I0
(lp1108
S'good'
p1109
aS'luck'
p1110
aS'gam'
p1111
aS'kid'
p1112
atp1113
a(I0
(lp1114
S'jap'
p1115
aS'blow'
p1116
aS'crack'
p1117
aS'market'
p1118
atp1119
a(I0
(lp1120
S'b'
p1121
aS'g'
p1122
atp1123
a(I0
(lp1124
tp1125
a(I0
(lp1126
S'snow'
p1127
atp1128
a(I0
(lp1129
S'dim'
p1130
aS'sum'
p1131
aS'hungry'
p1132
atp1133
a(I1
(lp1134
S'rock'
p1135
aS'place'
p1136
atp1137
a(I1
(lp1138
S'mercy'
p1139
atp1140
a(I0
(lp1141
S'yawn'
p1142
atp1143
a(I1
(lp1144
S'crush'
p1145
aS'cab'
p1146
atp1147
a(I0
(lp1148
S'c no'
p1149
atp1150
a(I1
(lp1151
S'red'
p1152
aS'oh'
p1153
aS'boy'
p1154
aS'red'
p1155
atp1156
a(I2
(lp1157
S'1st'
p1158
aS'march'
p1159
aS'red'
p1160
aS'start'
p1161
aS'pump'
p1162
atp1163
a(I0
(lp1164
S'busy'
p1165
aS'bee'
p1166
atp1167
a(I1
(lp1168
S'green'
p1169
atp1170
a(I0
(lp1171
S'c no'
p1172
atp1173
a(I1
(lp1174
S'hyp'
p1175
aS'herd'
p1176
aS'psychology'
p1177
atp1178
a(I0
(lp1179
S'black'
p1180
aS'tuesday'
p1181
aS'com'
p1182
aS'pump'
p1183
atp1184
a(I0
(lp1185
S'soc'
p1186
aS'breeze'
p1187
aS'&'
p1188
aS'star'
p1189
aS'wave'
p1190
aS'nevi'
p1191
aS'sleep'
p1192
atp1193
a(I0
(lp1194
S'fin'
p1195
aS'shave'
p1196
aS'include'
p1197
aS'scar'
p1198
atp1199
a(I0
(lp1200
S'fin'
p1201
aS'op'
p1202
aS'room'
p1203
aS'window'
p1204
aS'ogre'
p1205
aS'wreath'
p1206
atp1207
a(I1
(lp1208
S'flood'
p1209
aS'market'
p1210
aS'analyst'
p1211
aS'report'
p1212
aS'stack'
p1213
aS'Friday'
p1214
aS'read'
p1215
atp1216
a(I0
(lp1217
S'v-green'
p1218
atp1219
a(I2
(lp1220
S'green'
p1221
aS'green'
p1222
aS'green'
p1223
atp1224
a(I0
(lp1225
S'v'
p1226
atp1227
a(I0
(lp1228
S'think'
p1229
atp1230
a(I0
(lp1231
S'way'
p1232
aS'hawk'
p1233
atp1234
a(I0
(lp1235
S'Cambridge'
p1236
atp1237
a(I0
(lp1238
S'pork'
p1239
aS'soy'
p1240
aS'mu y'
p1241
aS'pay'
p1242
atp1243
a(I1
(lp1244
S'support'
p1245
aS'ear'
p1246
aS'detect'
p1247
aS'ova'
p1248
aS'cant'
p1249
atp1250
a(I2
(lp1251
S'test'
p1252
atp1253
a(I0
(lp1254
S'spring'
p1255
aS'semester'
p1256
aS'class'
p1257
aS'rock'
p1258
atp1259
a(I2
(lp1260
S'textbook'
p1261
aS'1st'
p1262
aS'stem'
p1263
aS'700'
p1264
aS'2nd'
p1265
aS'stem'
p1266
aS'1000'
p1267
atp1268
a(I0
(lp1269
S'blossom'
p1270
aS'spring'
p1271
aS'test'
p1272
atp1273
a(I0
(lp1274
S'test'
p1275
atp1276
a(I1
(lp1277
tp1278
a(I0
(lp1279
S'know'
p1280
aS'car'
p1281
aS'**'
p1282
atp1283
a(I0
(lp1284
S'come'
p1285
aS'dead'
p1286
aS'week'
p1287
atp1288
a(I1
(lp1289
S'sick'
p1290
aS'pig'
p1291
atp1292
a(I0
(lp1293
S'short'
p1294
atp1295
a(I0
(lp1296
S'lick'
p1297
atp1298
a(I1
(lp1299
S'want'
p1300
aS'gambol'
p1301
aS'buy'
p1302
aS'oil'
p1303
aS'wait'
p1304
aS'11am'
p1305
aS'tow'
p1306
aS'morn'
p1307
atp1308
a(I2
(lp1309
NaS'year'
p1310
atp1311
a(I0
(lp1312
S'beat'
p1313
aS'market'
p1314
atp1315
a(I0
(lp1316
S'let'
p1317
aS'go'
p1318
aS'earn'
p1319
atp1320
a(I1
(lp1321
S'track'
p1322
atp1323
a(I1
(lp1324
S'ogre'
p1325
aS'oil'
p1326
atp1327
a(I0
(lp1328
S'read'
p1329
atp1330
a(I0
(lp1331
S'tie u'
p1332
aS'conga'
p1333
aS'gang'
p1334
aS'ho'
p1335
atp1336
a(I0
(lp1337
NaS'air'
p1338
aNaS'snow'
p1339
aS'good'
p1340
atp1341
a(I4
(lp1342
S'omg'
p1343
aS'old'
p1344
aS'ogre'
p1345
aS'friend'
p1346
aS'get'
p1347
aS'marry'
p1348
atp1349
a(I5
(lp1350
NaS'air'
p1351
aNaS'snow'
p1352
aS'good'
p1353
atp1354
a(I0
(lp1355
S'holiday'
p1356
aS'rial'
p1357
atp1358
a(I0
(lp1359
S'ol'
p1360
aS'ol'
p1361
atp1362
a(I0
(lp1363
NaS'run'
p1364
atp1365
a(I4
(lp1366
S'31'
p1367
aS'page'
p1368
aS'36'
p1369
aS'hour'
p1370
aS'continue'
p1371
aNaS'10'
p1372
aS'3-hour'
p1373
aS'sleep'
p1374
aS'expect'
p1375
atp1376
a(I1
(lp1377
S'set'
p1378
aS'record'
p1379
aS'keep'
p1380
aS'follow'
p1381
aS'fob'
p1382
atp1383
a(I0
(lp1384
S'common'
p1385
atp1386
a(I2
(lp1387
S'ppl'
p1388
aS'stop'
p1389
aS'post'
p1390
aS'v ac'
p1391
aS'plan'
p1392
aS'because'
p1393
aS'person'
p1394
aS'struggling'
p1395
aS'final'
p1396
atp1397
a(I0
(lp1398
S'aaaaaaaaaaaaaaaaaaaaaaaaaaaaaaaaaaaaaaaaaaaaaaaaaaaaaaaaa'
p1399
atp1400
a(I0
(lp1401
S'tui'
p1402
aS'may'
p1403
aS'tao'
p1404
aS'min h'
p1405
aS'hong'
p1406
aS'guy'
p1407
aS'dpt'
p1408
aS'o'
p1409
aS'van'
p1410
aS'tao'
p1411
aS'no i'
p1412
aS'chum'
p1413
aS'coin'
p1414
atp1415
a(I0
(lp1416
S'd cm'
p1417
aS'thang'
p1418
aNatp1419
a(I0
(lp1420
S'come'
p1421
aS'favorite'
p1422
aS'subject'
p1423
atp1424
a(I4
(lp1425
S'every'
p1426
aS'minute'
p1427
aS'count'
p1428
aS'every'
p1429
aS'piece'
p1430
aS'effort'
p1431
aS'count'
p1432
atp1433
a(I0
(lp1434
S'thous'
p1435
aS'bloom'
p1436
atp1437
a(I0
(lp1438
S'keep'
p1439
aS'subsidy'
p1440
aS'renew'
p1441
aS'anergy'
p1442
atp1443
a(I1
(lp1444
S'ebb'
p1445
aS'shear'
p1446
aS'joy'
p1447
atp1448
a(I0
(lp1449
Vgust
p1450
aVmontage
p1451
aVgust
p1452
aVtu
p1453
atp1454
a(I0
(lp1455
S'real'
p1456
aS'love'
p1457
aS'wint'
p1458
aS'aft'
p1459
aS'cloys'
p1460
aS'room'
p1461
aS'window'
p1462
atp1463
a(I2
(lp1464
S'wear'
p1465
aS'glove'
p1466
aS'slop'
p1467
atp1468
a(I1
(lp1469
S'nay'
p1470
aS'college'
p1471
atp1472
a(I0
(lp1473
S'blab'
p1474
atp1475
a(I1
(lp1476
S'Putnam'
p1477
aS'cross'
p1478
atp1479
a(I0
(lp1480
S'big'
p1481
aS'foal'
p1482
atp1483
a(I0
(lp1484
S'brain-boosters'
p1485
atp1486
a(I0
(lp1487
S'pain'
p1488
atp1489
a(I1
(lp1490
S'snow'
p1491
aS'dram'
p1492
aS'fin'
p1493
aS"'"
p1494
aS'thanks g'
p1495
atp1496
a(I2
(lp1497
S'Duncan'
p1498
aS'@'
p1499
aS'yahoo-com'
p1500
aS'hack'
p1501
aS'mother'
p1502
aS'conduct'
p1503
aS'ethic'
p1504
aS'real'
p1505
aS'-eat-shit'
p1506
aS'dog'
p1507
aS'talk'
p1508
aS'mask'
p1509
aS'suck'
p1510
aS'dick'
p1511
aS'send'
p1512
aS'fuck'
p1513
aS"''"
p1514
aS'wel'
p1515
atp1516
a(I1
(lp1517
S'da'
p1518
aS'lusty'
p1519
aS'than h'
p1520
aS'conga'
p1521
aS'hap'
p1522
aS'dung'
p1523
aS'dais'
p1524
aS'p hap'
p1525
aS'2'
p1526
aS'dem'
p1527
aS'roi'
p1528
aS'chi'
p1529
aS'nu'
p1530
aS'co'
p1531
aS'2'
p1532
aS'ting'
p1533
aS'mac'
p1534
aS'du'
p1535
aS'hom'
p1536
aS'Esau'
p1537
aS'cuing'
p1538
aS'k hong'
p1539
aS'lam'
p1540
aS'git'
p1541
atp1542
a(I3
(lp1543
S'fuck'
p1544
aS'kore'
p1545
aS'sentry'
p1546
aS'suck'
p1547
atp1548
a(I0
(lp1549
S'fin'
p1550
aS'mad'
p1551
aS'some'
p1552
aS'want'
p1553
atp1554
a(I0
(lp1555
S'battle'
p1556
aS'tow'
p1557
aS'another'
p1558
atp1559
a(I1
(lp1560
S'somebody'
p1561
aS'wake'
p1562
aS'zing'
p1563
atp1564
a(I2
(lp1565
S'put'
p1566
aS'hand'
p1567
aS'pant'
p1568
aS'bet'
p1569
aS'nut'
p1570
atp1571
a(I0
(lp1572
S'sex'
p1573
atp1574
a(I0
(lp1575
S'master b'
p1576
aS'think'
p1577
aS'dirty-minded'
p1578
atp1579
a(I0
(lp1580
S'watch'
p1581
aS'cuff-link'
p1582
aNaNatp1583
a(I0
(lp1584
tp1585
a(I2
(lp1586
S'cove'
p1587
aS'snow'
p1588
atp1589
a(I0
(lp1590
S'crazy'
p1591
aS'wint'
p1592
aS'crazy'
p1593
aS'spring'
p1594
aS'daydream'
p1595
atp1596
a(I0
(lp1597
S'mid-terms'
p1598
aS'part'
p1599
aS'us'
p1600
aS'week'
p1601
aS'routing'
p1602
atp1603
a(I1
(lp1604
S'sick'
p1605
aS'daylight'
p1606
aS'save'
p1607
aS'hwy'
p1608
aS'sick'
p1609
atp1610
a(I0
(lp1611
tp1612
a(I0
(lp1613
S'omg'
p1614
aS'tail g'
p1615
atp1616
a(I0
(lp1617
S'some'
p1618
aS'petty'
p1619
aS'self-indulgence'
p1620
atp1621
a(I0
(lp1622
S'tank'
p1623
atp1624
a(I0
(lp1625
S'common'
p1626
atp1627
a(I3
(lp1628
S'hug'
p1629
aS'snack'
p1630
aS'salad'
p1631
aS'cod-fish'
p1632
aS'sandwich'
p1633
aS'milk'
p1634
aS'1202am'
p1635
aS"'m"
p1636
aS'gon'
p1637
aS'na'
p1638
aS'pul'
p1639
aS'all-nighter'
p1640
aS'span'
p1641
aS'mid-term'
p1642
aS'tow'
p1643
aS'jack'
p1644
aS'cousin'
p1645
aS"'d"
p1646
aS'prob'
p1647
aS'bet'
p1648
aS'some'
p1649
aS'sleep'
p1650
aS'tho'
p1651
aS"'d"
p1652
aS'prob'
p1653
aS'bet'
p1654
aS'some-th'
p1655
aS'head'
p1656
aS'post-halloween'
p1657
aS'syndrome'
p1658
atp1659
a(I1
(lp1660
S'amaze'
p1661
aS'knowledge'
p1662
aS'inform'
p1663
aS'opportunity'
p1664
atp1665
a(I2
(lp1666
S'hello'
p1667
aS'may'
p1668
aS'sleep'
p1669
aS'import'
p1670
aS'nee'
p1671
aS'eat'
p1672
aS'drink'
p1673
aS'show'
p1674
aS'brush'
p1675
aS'tee'
p1676
aS'poop'
p1677
aS'pee'
p1678
aS'work'
p1679
aS'pols'
p1680
atp1681
a(I2
(lp1682
S'slept'
p1683
aS'lunch'
p1684
aS'first'
p1685
aS'resort'
p1686
aNaS'noodle'
p1687
aS'sin-gap'
p1688
atp1689
a(I0
(lp1690
S'many'
p1691
aS'interest'
p1692
aS'thing'
p1693
aS'study'
p1694
aS'wint'
p1695
aS'break'
p1696
aS'may'
p1697
aS'wel'
p1698
aS'wint'
p1699
aS'break'
p1700
atp1701
a(I3
(lp1702
S'snow'
p1703
aS'octopi'
p1704
atp1705
a(I3
(lp1706
S'Dachau'
p1707
aS'vow'
p1708
aS'Vietnamese'
p1709
aS'rest a'
p1710
aS'op'
p1711
aS'spring'
p1712
aS'street'
p1713
aNaS'five'
p1714
aS'min'
p1715
aS'away'
p1716
aS'dorm'
p1717
aS'interest'
p1718
aS'nam'
p1719
aS'Saigon'
p1720
aS'awesome'
p1721
atp1722
a(I0
(lp1723
S'pier-do'
p1724
aS'mi'
p1725
aS'meant'
p1726
atp1727
a(I0
(lp1728
Vdoubt
p1729
aVperson
p1730
aVfreedom
p1731
aVself-motivation
p1732
aVindividual
p1733
aVexcel
p1734
aVend
p1735
aVit\u2019s
p1736
aVself-benefit
p1737
aVrely
p1738
aVhonesty
p1739
aVservo
p1740
aVlead
p1741
aNaVcommune
p1742
aVpass
p1743
aVcent
p1744
aVoath
p1745
aVrath
p1746
aVone\u2019s
p1747
aVself
p1748
aVpursuit
p1749
aVmean
p1750
aVvalue
p1751
aVrath
p1752
aVsuper f
p1753
aVmat
p1754
aVgoal
p1755
atp1756
a(I2
(lp1757
S'everyday'
p1758
aS'economy'
p1759
aS'class'
p1760
aS'ogre'
p1761
atp1762
a(I0
(lp1763
S'armhole'
p1764
atp1765
a(I2
(lp1766
S'100'
p1767
aS'%'
p1768
aS'shot'
p1769
aS'teak'
p1770
atp1771
a(I1
(lp1772
S'ca'
p1773
aS'live'
p1774
aS'blackberry'
p1775
atp1776
a(I1
(lp1777
S'nail'
p1778
aS'mid-term'
p1779
aS'keep'
p1780
aS'ham'
p1781
atp1782
a(I1
(lp1783
S'mgr'
p1784
aS'goth'
p1785
aS'choke'
p1786
aS'tong'
p1787
atp1788
a(I0
(lp1789
S'octopi'
p1790
aS'cant'
p1791
aS'mon'
p1792
aS'mem'
p1793
aS'every'
p1794
aS'cant'
p1795
aS'paty'
p1796
aS'foamy'
p1797
aS'member'
p1798
aS'friend'
p1799
aS'lost'
p1800
aS'battle'
p1801
aS'cant'
p1802
aS'hon'
p1803
aS'thous'
p1804
aS'continue'
p1805
aS'conk'
p1806
aS'put'
p1807
aS'1'
p1808
aS'hour'
p1809
aS'someone'
p1810
aS'cant'
p1811
atp1812
a(I6
(lp1813
S'aint'
p1814
aS'proud'
p1815
aS'ac'
p1816
atp1817
a(I0
(lp1818
S'mountain'
p1819
aS'f ml'
p1820
atp1821
a(I0
(lp1822
S'see'
p1823
aS'silverfish'
p1824
aS'cloud'
p1825
aS'hay'
p1826
aS'mal'
p1827
aS'que'
p1828
aS'pour'
p1829
aS'bien'
p1830
aS'veg'
p1831
atp1832
a(I1
(lp1833
S'key'
p1834
aS'success'
p1835
aS'keep'
p1836
aS'peach'
p1837
aS'mind'
p1838
aS'undo'
p1839
aS'circumspect'
p1840
aS'ransom'
p1841
aS'dud'
p1842
aS'mistake'
p1843
aS'phon'
p1844
aS'numb'
p1845
aS'sign'
p1846
atp1847
a(I1
(lp1848
S'kid'
p1849
aS'awake'
p1850
aS'screw'
p1851
aS'happy'
p1852
aS'because'
p1853
aS'awake'
p1854
aS'antifreeze'
p1855
atp1856
a(I0
(lp1857
S'doe'
p1858
aS'want'
p1859
aS'think'
p1860
atp1861
a(I0
(lp1862
S'stint'
p1863
aS'norm'
p1864
atp1865
a(I2
(lp1866
S'study'
p1867
aS'addict'
p1868
aS'homework'
p1869
aS'give'
p1870
aS'excuser'
p1871
aS'screw'
p1872
aS'ca'
p1873
aS'stop'
p1874
aS'academy'
p1875
aS'spree'
p1876
aS'mug'
p1877
aS'mug'
p1878
aS'mug'
p1879
atp1880
a(I0
(lp1881
S'defrost'
p1882
atp1883
a(I1
(lp1884
S'antifreeze'
p1885
atp1886
a(I1
(lp1887
S'f'
p1888
aS'fb-ing'
p1889
aS'get'
p1890
aS'lift'
p1891
atp1892
a(I1
(lp1893
S'some-th'
p1894
aS'enjoy'
p1895
aS'wast'
p1896
aS'unimportant'
p1897
aS'stuff'
p1898
aS'try'
p1899
aS'mask'
p1900
aNaS'some-th'
p1901
aS'tot'
p1902
aS'random'
p1903
atp1904
a(I0
(lp1905
S'10'
p1906
aS'12'
p1907
aS'15'
p1908
aS'18'
p1909
aS'23'
p1910
aS'25'
p1911
aS'28'
p1912
aS'32'
p1913
aS'common'
p1914
aS'feat'
p1915
aS'thews'
p1916
aS'two'
p1917
aS'set'
p1918
aS'number'
p1919
atp1920
a(I0
(lp1921
S'vain'
p1922
aS'profile'
p1923
aS'pix'
p1924
atp1925
a(I0
(lp1926
S'vain'
p1927
aS'dpt'
p1928
atp1929
a(I0
(lp1930
S'102'
p1931
atp1932
a(I0
(lp1933
S'let'
p1934
aS'go'
p1935
aS'cobra'
p1936
atp1937
a(I0
(lp1938
S'sonority'
p1939
atp1940
a(I0
(lp1941
S'reclaim'
p1942
aS'title'
p1943
aS'true'
p1944
aS'tank'
p1945
atp1946
a(I1
(lp1947
S'see'
p1948
aS'snowball'
p1949
atp1950
a(I0
(lp1951
S'rog'
p1952
aS'rog'
p1953
aS'rog'
p1954
aS'rog'
p1955
aS'/3'
p1956
atp1957
a(I1
(lp1958
NaVe
p1959
aVun
p1960
aVcancan
p1961
aVde
p1962
atp1963
a(I2
(lp1964
S'get'
p1965
aS'cold'
p1966
aS'**'
p1967
atp1968
a(I0
(lp1969
S'ebb'
p1970
aS'ad'
p1971
aS'pin'
p1972
aS'22dd5144'
p1973
atp1974
a(I1
(lp1975
S'think'
p1976
aS'ebb'
p1977
aS'torch'
p1978
aS'soot'
p1979
aS'lousy'
p1980
atp1981
a(I2
(lp1982
S'blackberry'
p1983
aS'torch'
p1984
aS'sweet'
p1985
aS'd'
p1986
aS'cal'
p1987
aS'413-346-8100'
p1988
atp1989
a(I0
(lp1990
S'help'
p1991
aS'decipher'
p1992
aS'lyric'
p1993
aS'move'
p1994
aS"''"
p1995
aS'republic'
p1996
aS'**'
p1997
atp1998
a(I9
(lp1999
S'saw'
p2000
aS'deer'
p2001
aS'park'
p2002
aS'lot'
p2003
aS'met'
p2004
aS'awesome'
p2005
aS'jays'
p2006
aS'foal'
p2007
aS'place'
p2008
aS'first'
p2009
aS'sight'
p2010
atp2011
a(I0
(lp2012
S'think'
p2013
aS'monopoly'
p2014
aS'count'
p2015
aS'rev'
p2016
aS'because'
p2017
aS'eh'
p2018
aS'talk'
p2019
aS'pump'
p2020
aS'much'
p2021
aS'hard'
p2022
aS'control'
p2023
aS'wee'
p2024
aS'wee'
p2025
aS'wee'
p2026
atp2027
a(I0
(lp2028
S'canyon'
p2029
aS'fly'
p2030
aS'sag'
p2031
aS'h cm'
p2032
aS'nee'
p2033
aS'help'
p2034
atp2035
a(I0
(lp2036
S'almost'
p2037
aS'faint'
p2038
aS'see'
p2039
aS'it-in'
p2040
aS'alb-any'
p2041
aS'airport'
p2042
aS'1030pm'
p2043
atp2044
a(I0
(lp2045
S'misanthropy'
p2046
aS'hat'
p2047
atp2048
a(I0
(lp2049
S'confide'
p2050
aS'also'
p2051
aS'multiplier'
p2052
atp2053
a(I3
(lp2054
S'canard'
p2055
aS'project'
p2056
aS'comp'
p2057
aS'effect'
p2058
aS'watch'
p2059
aS'porn'
p2060
aS'bet w'
p2061
aS'watcher'
p2062
aS'non-watchers'
p2063
aS'fail'
p2064
aS'first'
p2065
aS'step'
p2066
aS'find'
p2067
aS'canyon'
p2068
aS'watch'
p2069
aS'porn'
p2070
aS'ie'
p2071
aS'men'
p2072
aS'watch'
p2073
aS'porn'
p2074
atp2075
a(I1
(lp2076
S'know'
p2077
aS'com'
p2078
atp2079
a(I2
(lp2080
S'howl'
p2081
aS'Buena'
p2082
aS'notch'
p2083
atp2084
a(I0
(lp2085
S'sag'
p2086
aS'309'
p2087
atp2088
a(I0
(lp2089
S'dorm'
p2090
aS'sag'
p2091
aS'entry'
p2092
atp2093
a(I0
(lp2094
S'vu~'
p2095
aS'div'
p2096
aNaS'va'
p2097
aS'hong'
p2098
aS'gen y'
p2099
aS'min h'
p2100
aS'hong'
p2101
aS'9x'
p2102
aS'chum'
p2103
aS'cc'
p2104
aS'ban'
p2105
atp2106
a(I0
(lp2107
S'receive'
p2108
aNaS'from-my'
p2109
aS'wool f'
p2110
aS'lead'
p2111
aS'go'
p2112
aS'Kelsey'
p2113
atp2114
a(I0
(lp2115
S'friend'
p2116
aS'sin-gap'
p2117
atp2118
a(I0
(lp2119
S'1'
p2120
aS'ton'
p2121
aS'dollar'
p2122
aS'thous'
p2123
aS'sam'
p2124
aS'class'
p2125
atp2126
a(I0
(lp2127
S'eh'
p2128
aS'fros l'
p2129
aS'ie'
p2130
aS'income'
p2131
aS'freshman'
p2132
aS'post'
p2133
aS'schedule'
p2134
aS'tag'
p2135
aS'ppl'
p2136
aS'secrecy'
p2137
aS'tol'
p2138
aS'els'
p2139
aS'assign'
p2140
aS'sam'
p2141
aS'black'
p2142
aS'list'
p2143
aS'kore'
p2144
atp2145
a(I1
(lp2146
S'respond'
p2147
aS'email/message'
p2148
aS'sent'
p2149
aS'ym'
p2150
aS'hot-mail'
p2151
aS'account'
p2152
aS'ie'
p2153
aS'Duncan'
p2154
aS'@'
p2155
aS'yahoo-com'
p2156
aS'&'
p2157
aS'duncan_levu'
p2158
aS'@'
p2159
aS'hotmailcom'
p2160
aS'hack'
p2161
aS'whoever'
p2162
aS'contact'
p2163
aS'thous'
p2164
aS'email'
p2165
aS'try'
p2166
aS'borrow'
p2167
aNaS'us'
p2168
aS'nam'
p2169
aS'nevi'
p2170
aS'shear'
p2171
aS'password'
p2172
aS'anybody'
p2173
aS'mat'
p2174
aS'cloys'
p2175
atp2176
a(I0
(lp2177
S'respond'
p2178
aS'email/message'
p2179
aS'sent'
p2180
aS'ym'
p2181
aS'hot-mail'
p2182
aS'account'
p2183
aS'son'
p2184
aS'b****'
p2185
aS'st h'
p2186
atp2187
a(I0
(lp2188
S'hot-mail'
p2189
aS'account'
p2190
aS'com-prom'
p2191
aS'contact'
p2192
aS'Keith'
p2193
aS'gm-ail'
p2194
aS'account'
p2195
atp2196
a(I0
(lp2197
S'want'
p2198
aS'team'
p2199
atp2200
a(I0
(lp2201
S'got'
p2202
aS'shot'
p2203
aS'4'
p2204
aS'time'
p2205
aS'p'
p2206
aS'vaccine'
p2207
aS'julep'
p2208
aS'vaccine'
p2209
aS'felt'
p2210
aS'drug'
p2211
atp2212
a(I3
(lp2213
S'soot'
p2214
aS'happy'
p2215
aS'see'
p2216
aS'soon'
p2217
atp2218
a(I0
(lp2219
S'guilt'
p2220
aS'err'
p2221
atp2222
a(I0
(lp2223
S'wan'
p2224
aS'na'
p2225
aS'trillion-air'
p2226
aS'freak'
p2227
aS'bad'
p2228
atp2229
a(I2
(lp2230
S'martinet'
p2231
aS'jeremiad'
p2232
aS'stent'
p2233
aS're-barb'
p2234
aS'project'
p2235
aS'mug'
p2236
aS'4'
p2237
aS'word'
p2238
aS'everyday'
p2239
ag938
aS'p'
p2240
atp2241
a(I1
(lp2242
S'facebook-ing'
p2243
atp2244
a(I0
(lp2245
S'linear'
p2246
aS'algebra'
p2247
aS'wee'
p2248
atp2249
a(I0
(lp2250
S'strong'
p2251
aS'fit'
p2252
aS'germ-any'
p2253
aS'bye'
p2254
aS'bye'
p2255
aS'england'
p2256
atp2257
a(I3
(lp2258
S'great-match'
p2259
aS'germ-any'
p2260
aS'england'
p2261
aS'referee'
p2262
aS'omg'
p2263
aS'real'
p2264
aS'f'
p2265
atp2266
a(I1
(lp2267
S'spain'
p2268
ag938
aS'portage'
p2269
atp2270
a(I0
(lp2271
S'singapore-'
p2272
aS'ma-lays'
p2273
aS'east'
p2274
aS'ma-lays'
p2275
aS'mull'
p2276
aS'cave'
p2277
aS'Sarawak'
p2278
aS'brunet'
p2279
aS'wee'
p2280
atp2281
a(I0
(lp2282
S'scrumptious'
p2283
aS'tha'
p2284
aS'cuisine'
p2285
aS'hand'
p2286
aS'cloth'
p2287
aS'sin-gap'
p2288
aS'shop'
p2289
aS'awesome'
p2290
aS'endless'
p2291
aS'row'
p2292
aS'book'
p2293
aS'kino'
p2294
aS'inc-red'
p2295
aS'toy'
p2296
aS'story'
p2297
aS'hum'
p2298
aS'cure'
p2299
aS'inspire'
p2300
aS'best'
p2301
aS'move'
p2302
aS'rev'
p2303
aS'indeed'
p2304
aS'port'
p2305
ag938
aS'pr k'
p2306
aS'7'
p2307
aS'0'
p2308
aS'cur'
p2309
aS'scour'
p2310
aS'best'
p2311
aS'company'
p2312
atp2313
a(I0
(lp2314
Vwant
p2315
aVconger
p2316
aVwhoever
p2317
aVreceive
p2318
aVscholarship
p2319
aVactive
p2320
aVun
p2321
aVprogram
p2322
aVhappy
p2323
aVguys
p2324
aVindeed
p2325
aVcheer
p2326
aVad
p2327
aVchat
p2328
aVlye
p2329
aVv
p2330
aVsee
p2331
aVcollege
p2332
aVdream
p2333
aVcome
p2334
aVtrue
p2335
aVp
p2336
atp2337
a(I0
(lp2338
S'sin-gap'
p2339
aS'tomorrow'
p2340
aS'onward'
p2341
aS'want'
p2342
aS'ten'
p2343
aS'tiff'
p2344
aS'ca'
p2345
aS'find'
p2346
aS'sentry'
p2347
aNaS'com'
p2348
aS'lat'
p2349
aS'jury'
p2350
aS'august'
p2351
atp2352
a(I0
(lp2353
S'span'
p2354
aNatp2355
a(I0
(lp2356
S'wool f'
p2357
aS'wool f'
p2358
aS'dun'
p2359
aS'know'
p2360
aS'pee'
p2361
aS'sit'
p2362
aS'canto'
p2363
atp2364
a(I0
(lp2365
S'wool f'
p2366
aS'wait'
p2367
atp2368
a(I0
(lp2369
S'wool f'
p2370
aS'wait'
p2371
aS'bridge'
p2372
atp2373
a(I1
(lp2374
S'eh'
p2375
atp2376
a(I0
(lp2377
S'get'
p2378
aS'ba'
p2379
aS'must'
p2380
aS'complete'
p2381
aNaNaS'require'
p2382
aNaS'swim'
p2383
aS'test'
p2384
aS'thx'
p2385
aS'dad'
p2386
aS'teach'
p2387
aS'swim'
p2388
aS'grad u'
p2389
aS'college'
p2390
atp2391
a(I0
(lp2392
S'course'
p2393
aS'instruct'
p2394
aS'drive'
p2395
aS'crazy'
p2396
aS'blab'
p2397
aS'p'
p2398
atp2399
a(I0
(lp2400
S'real'
p2401
aS'like'
p2402
aS'stows'
p2403
aS'deserve'
p2404
aS'win'
p2405
atp2406
a(I4
(lp2407
S'-is-'
p2408
aS'wound'
p2409
aS'intellect'
p2410
aS'lucre'
p2411
aS'resist'
p2412
aS'addict'
p2413
aS'mem'
p2414
aS'super n'
p2415
atp2416
a(I1
(lp2417
S'soooooooooooooooooooooo'
p2418
aS'excite'
p2419
atp2420
a(I0
(lp2421
S'con'
p2422
aS'dao'
p2423
aS'real'
p2424
aS'amaze'
p2425
aS'beauty'
p2426
aS'excite'
p2427
aS'hap'
p2428
atp2429
a(I0
(lp2430
S'oi'
p2431
aS'lift'
p2432
atp2433
a(I0
(lp2434
S'n hung'
p2435
aS'tao'
p2436
aS't rang'
p2437
aS'twist'
p2438
aS'v cl'
p2439
atp2440
a(I1
(lp2441
S'live'
p2442
aS'cobra'
p2443
aS'3-meter'
p2444
aS'long'
p2445
aS'7'
p2446
aNaS'slaughter'
p2447
aS'hom'
p2448
atp2449
a(I0
(lp2450
S'con'
p2451
aS'no i'
p2452
aS'ky'
p2453
aS'diem'
p2454
aS'em'
p2455
aS'da'
p2456
aS'ra'
p2457
aS'di'
p2458
aS'mot'
p2459
aS'chief'
p2460
aS'mu a'
p2461
aS'put'
p2462
aS'hand'
p2463
aS'pocket'
p2464
atp2465
a(I0
(lp2466
S'mu a'
p2467
aS'de'
p2468
aS'u'
p2469
aS'u'
p2470
aS'ca'
p2471
aS'j'
p2472
aS'may'
p2473
aS'Thieu'
p2474
aS'ma'
p2475
aS'dis'
p2476
aS't hay'
p2477
aS'mu a'
p2478
aS'chant'
p2479
aS'vol'
p2480
atp2481
a(I0
(lp2482
S'no i'
p2483
aS'la'
p2484
aS'cc'
p2485
aS'e'
p2486
aS'o'
p2487
aS'no i'
p2488
aS'no i'
p2489
aS'gong'
p2490
aS'chi'
p2491
aS'cam'
p2492
aS'van'
p2493
aS'ma'
p2494
aS'Davao'
p2495
aS'trophic'
p2496
aS'cho'
p2497
aS"'m"
p2498
aS'de'
p2499
aS'dace'
p2500
aS'bidet'
p2501
aS'la'
p2502
aS'e'
p2503
aS'lye'
p2504
aS'Congo'
p2505
aS'hair'
p2506
atp2507
a(I0
(lp2508
S'ye u'
p2509
aS'ca u'
p2510
aS'cc'
p2511
aS'ban'
p2512
aS'Davao'
p2513
aS'mien'
p2514
aS'nam'
p2515
aS'cho'
p2516
aS'khan'
p2517
aS'truing'
p2518
aS'truck'
p2519
aS'k hi'
p2520
aS'min h'
p2521
aS'ra'
p2522
aS'bac'
p2523
atp2524
a(I0
(lp2525
S'beach'
p2526
aS'skin'
p2527
aS'peel'
p2528
aS'sneak'
p2529
atp2530
a(I1
(lp2531
S'n ha'
p2532
aS't rang'
p2533
aNaS'l'
p2534
atp2535
a(I0
(lp2536
S'tennis-maniac'
p2537
atp2538
a(I0
(lp2539
S'thang'
p2540
aS'long'
p2541
aS'thousand'
p2542
aS'year'
p2543
aS'nay'
p2544
atp2545
a(I2
(lp2546
S'treasure'
p2547
aS'every'
p2548
aS'mem'
p2549
aS'gather'
p2550
aS'past'
p2551
aS'21'
p2552
aS'year'
p2553
atp2554
a(I0
(lp2555
S'oh'
p2556
aS'oh'
p2557
aS'oh'
p2558
aS'tonight'
p2559
aS'crazy'
p2560
atp2561
a(I0
(lp2562
S'http'
p2563
aS'//wwwyoutubecom/watch'
p2564
aS'v=u9gbbbxhs-y'
p2565
aS'si'
p2566
aS'love'
p2567
atp2568
a(I0
(lp2569
S'got'
p2570
aS'deposit'
p2571
aS'waive'
p2572
aS'd'
p2573
aS'yay'
p2574
atp2575
a(I0
(lp2576
S'enjoy'
p2577
aS'play'
p2578
aS'tr-iv'
p2579
aS'quiz z'
p2580
aS'd'
p2581
atp2582
a(I0
(lp2583
S'sao'
p2584
aS'cc'
p2585
aS'em'
p2586
aS'Solomon'
p2587
aS'g he'
p2588
atp2589
a(I0
(lp2590
S'final'
p2591
aS'known'
p2592
aS'us'
p2593
aS'real'
p2594
aS'face-book'
p2595
aS'd'
p2596
aS'screw'
p2597
aS'lightface'
p2598
aS'**'
p2599
atp2600
a(I0
(lp2601
S'bat'
p2602
aS'daub'
p2603
aS'ca'
p2604
aS'noggin'
p2605
aS'd'
p2606
atp2607
a(I1
(lp2608
S'found'
p2609
aS'afford'
p2610
aS'd'
p2611
atp2612
a(I8
(lp2613
S'foal'
p2614
atp2615
a(I1
(lp2616
S'hop'
p2617
aS'aft'
p2618
aS'read'
p2619
aS"'"
p2620
aS'common'
p2621
aS'dat'
p2622
aS'set'
p2623
atp2624
a(I0
(lp2625
S'put'
p2626
aS'hop'
p2627
aS'$'
p2628
aS'$'
p2629
aS'$'
p2630
atp2631
a(I0
(lp2632
S'active'
p2633
aS'decide'
p2634
aS'start'
p2635
aS'round'
p2636
aS'fa'
p2637
atp2638
a(I0
(lp2639
NaS'letter'
p2640
aS'hop'
p2641
aS'word'
p2642
aS'congratulation'
p2643
aS"''"
p2644
aS'appear'
p2645
aS'crush'
p2646
atp2647
a(I0
(lp2648
S'lift'
p2649
aS'furl'
p2650
aS'rejection'
p2651
aS'mass'
p2652
aS'rejection'
p2653
atp2654
a(I0
(lp2655
S'cornel'
p2656
aS'Harvard'
p2657
aS'website'
p2658
atp2659
a(I0
(lp2660
S'furl'
p2661
aS'ivy'
p2662
aS'd-day'
p2663
atp2664
a(I7
(lp2665
S'class'
p2666
aS'2014'
p2667
aS'ye'
p2668
atp2669
a(I1
(lp2670
S'apply'
p2671
aS'hug'
p2672
aS'fin-aid'
p2673
aS'year'
p2674
aS'put'
p2675
aS'hop'
p2676
aS'need-blind'
p2677
aS'un'
p2678
atp2679
a(I2
(lp2680
S'let'
p2681
aS'cornel'
p2682
aS'paulin'
p2683
aS'iv'
p2684
aS'tan'
p2685
aS'dean'
p2686
aS'scholar'
p2687
atp2688
a(I0
(lp2689
S'd-day'
p2690
aS'ye'
p2691
atp2692
a(I0
(lp2693
S'no i'
p2694
aS'tonight'
p2695
aS'cold'
p2696
atp2697
a(I0
(lp2698
S'test'
p2699
aS'com'
p2700
atp2701
a(I0
(lp2702
S'physic'
p2703
aS'770'
p2704
aS'hm'
p2705
aS'rev'
p2706
aS'teak'
p2707
aS'physic'
p2708
atp2709
a(I1
(lp2710
S'lol'
p2711
aS'4'
p2712
aS'800'
p2713
atp2714
a.