(lp0
(I2
(lp1
(S'thanks g'
p2
S'NN'
p3
tp4
a(S'@'
p5
S'IN'
p6
tp7
a(S'nyc'
p8
S'NNP'
p9
tp10
a(S'11/27-12/1'
p11
S'CD'
p12
tp13
a(S'Thompson'
p14
S'NNP'
p15
tp16
a(S'hotel'
p17
S'NNP'
p18
tp19
atp20
a(I6
(lp21
(Vdeco
p22
S'NNP'
p23
tp24
a(V14th
p25
S'CD'
p26
tp27
a(V15th
p28
S'JJ'
p29
tp30
a(Vphil
p31
S'NNP'
p32
tp33
a(Vdeco
p34
S'NNP'
p35
tp36
a(V16th
p37
S'CD'
p38
tp39
a(Vdeco
p40
S'NNP'
p41
tp42
a(V22nd
p43
S'CD'
p44
tp45
a(Vh cm
p46
S'NNP'
p47
tp48
a(Vdeco
p49
g47
tp50
a(V23rd
p51
S'CD'
p52
tp53
a(Vjean
p54
S'NNP'
p55
tp56
a(V11th
p57
S'JJ'
p58
tp59
a(Vlong
p60
S'NNP'
p61
tp62
a(Vkim
p63
S'NNP'
p64
tp65
a(Vlye
p66
g64
tp67
a(VCongo
p68
S'NNP'
p69
tp70
a(Vhair
p71
g69
tp72
a(Vtu\u1ea5n
p73
S'NNP'
p74
tp75
a(Vkart
p76
g74
tp77
atp78
a(I15
(lp79
(S'2014'
p80
S'CD'
p81
tp82
atp83
a(I2
(lp84
(S'show'
p85
S'NNP'
p86
tp87
a(S'he-id'
p88
S'NNP'
p89
tp90
a(S'ch-en'
p91
S'NNP'
p92
tp93
atp94
a(I2
(lp95
(S'common'
p96
S'JJ'
p97
tp98
atp99
a(I3
(lp100
(S'wily'
p101
S'NNP'
p102
tp103
a(S'hav'
p104
S'VB'
p105
tp106
a(S'phon'
p107
S'NN'
p108
tp109
a(S'step'
p110
S'NNP'
p111
tp112
a(S'20'
p113
S'CD'
p114
tp115
a(S'pleas'
p116
S'NNP'
p117
tp118
a(S'email/fb'
p119
S'NNP'
p120
tp121
atp122
a(I4
(lp123
(S'est'
p124
S'NNP'
p125
tp126
a(S'show'
p127
S'NNP'
p128
tp129
a(S'he-id'
p130
S'NNP'
p131
tp132
a(S'ch-en'
p133
S'NNP'
p134
tp135
a(S'tonight'
p136
S'VBD'
p137
tp138
a(S'last'
p139
S'JJ'
p140
tp141
a(S'sum'
p142
S'NN'
p143
tp144
a(S'night'
p145
S'NN'
p146
tp147
a(S'roxy'
p148
S'NNP'
p149
tp150
a(S'yang'
p151
S'NNP'
p152
tp153
a(S'lug'
p154
S'NNP'
p155
tp156
atp157
a(I1
(lp158
(S'fix'
p159
S'VBN'
p160
tp161
a(S'income'
p162
S'NN'
p163
tp164
a(S'expert'
p165
S'NN'
p166
tp167
a(S'around'
p168
S'IN'
p169
tp170
a(S'let'
p171
S'NN'
p172
tp173
a(S'chat'
p174
S'JJ'
p175
tp176
atp177
a(I4
(lp178
(S'da'
p179
S'NN'
p180
tp181
a(S'mat'
p182
S'NN'
p183
tp184
a(S'tic h'
p185
S'NN'
p186
tp187
a(S'ban'
p188
S'NN'
p189
tp190
a(S'no'
p191
S'NN'
p192
tp193
a(S'bidet'
p194
S'NN'
p195
tp196
a(S'thong'
p197
S'IN'
p198
tp199
a(S'tin'
p200
S'NN'
p201
tp202
a(S'lien'
p203
S'NN'
p204
tp205
a(g5
S':'
p206
tp207
a(g5
g206
tp208
atp209
a(I13
(lp210
(S'Massachusetts'
p211
S'NNS'
p212
tp213
a(S'institute'
p214
S'NNP'
p215
tp216
a(S'technology'
p217
S'NNP'
p218
tp219
a(S'omit'
p220
S'NNP'
p221
tp222
atp223
a(I6
(lp224
(S'college'
p225
S'NNP'
p226
tp227
atp228
a(I7
(lp229
(S'wily'
p230
S'NNP'
p231
tp232
a(S'Massachusetts'
p233
S'NNP'
p234
tp235
a(S'may'
p236
S'NNP'
p237
tp238
a(S'22-23'
p239
S'CD'
p240
tp241
a(S'nyc'
p242
S'NNP'
p243
tp244
a(S'may'
p245
S'NNP'
p246
tp247
a(S'25-27'
p248
S'CD'
p249
tp250
a(S'let'
p251
S'NNP'
p252
tp253
a(S'grab'
p254
S'NN'
p255
tp256
a(S'coff'
p257
S'NN'
p258
tp259
a(S'ther'
p260
S'RB'
p261
tp262
atp263
a(I3
(lp264
(S'best'
p265
S'JJS'
p266
tp267
a(S'wreath'
p268
S'NN'
p269
tp270
a(S'far'
p271
S'RB'
p272
tp273
atp274
a(I9
(lp275
(S'2nd'
p276
S'CD'
p277
tp278
a(S'ca'
p279
S'NNP'
p280
tp281
a(S'invest'
p282
S'NNP'
p283
tp284
a(S'challenge'
p285
S'NNP'
p286
tp287
a(S'yang'
p288
S'NNP'
p289
tp290
a(S'lug'
p291
S'NNP'
p292
tp293
a(S'show'
p294
S'NNP'
p295
tp296
a(S'he-id'
p297
S'NNP'
p298
tp299
a(S'ch-en'
p300
S'NNP'
p301
tp302
a(S'tag'
p303
S'NN'
p304
tp305
a(S'fly n'
p306
S'NNP'
p307
tp308
atp309
a(I1
(lp310
(S'thank'
p311
S'NNP'
p312
tp313
a(S'everyone'
p314
S'NN'
p315
tp316
a(S'bud'
p317
S'NN'
p318
tp319
a(S'wa'
p320
S'VBD'
p321
tp322
a(S'indeed'
p323
S'RB'
p324
tp325
a(S'blast'
p326
S'JJ'
p327
tp328
atp329
a(I4
(lp330
(S'nyc'
p331
S'NNP'
p332
tp333
a(S'hit'
p334
S'VBD'
p335
tp336
atp337
a(I1
(lp338
(S'oi'
p339
S'NN'
p340
tp341
a(S'e'
p342
S'NN'
p343
tp344
a(S'phew'
p345
S'NN'
p346
tp347
a(S'quern'
p348
S'NN'
p349
tp350
a(S'het'
p351
S'NN'
p352
tp353
a(S'dung'
p354
S'IN'
p355
tp356
a(S'voe'
p357
S'NN'
p358
tp359
atp360
a(I5
(lp361
(S'bay'
p362
S'NN'
p363
tp364
a(S'ko'
p365
S'VBD'
p366
tp367
a(S'bidet'
p368
S'JJ'
p369
tp370
a(S'dung'
p371
S'NN'
p372
tp373
a(S'voe'
p374
S'NN'
p375
tp376
a(S'gluon'
p377
S'NN'
p378
tp379
atp380
a(I3
(lp381
(S'much'
p382
S'JJ'
p383
tp384
a(S'nee'
p385
S'VBN'
p386
tp387
a(S'break'
p388
S'NN'
p389
tp390
a(S'rev'
p391
S'RB'
p392
tp393
a(S'begin'
p394
S'VB'
p395
tp396
atp397
a(I4
(lp398
(S'way'
p399
S'NN'
p400
tp401
a(S'mask'
p402
S'VB'
p403
tp404
a(S'simply'
p405
S'JJ'
p406
tp407
a(S'obey'
p408
S'RB'
p409
tp410
a(S'deficiency'
p411
S'NNS'
p412
tp413
a(S'oath'
p414
S'JJ'
p415
tp416
a(S'way'
p417
S'NN'
p418
tp419
a(S'mask'
p420
S'VB'
p421
tp422
a(S'comply'
p423
S'VBD'
p424
tp425
a(S'obey'
p426
S'JJ'
p427
tp428
a(S'deficiency'
p429
S'NNP'
p430
tp431
a(S'hoar'
p432
S'NNP'
p433
tp434
atp435
a(I1
(lp436
(S'ha'
p437
S'NNP'
p438
tp439
a(S'no i'
p440
S'NNP'
p441
tp442
a(S'boy'
p443
S'NN'
p444
tp445
a(S'git'
p446
S'NN'
p447
tp448
a(S'co'
p449
S'NN'
p450
tp451
atp452
a(I14
(lp453
(S'chuck'
p454
S'NNP'
p455
tp456
a(S'mung'
p457
S'NNP'
p458
tp459
a(S'nam'
p460
S'NNP'
p461
tp462
a(S'moil'
p463
S'NNP'
p464
tp465
atp466
a(I2
(lp467
(S'tut'
p468
S'NNP'
p469
tp470
a(S'member'
p471
S'NN'
p472
tp473
a(S'cho'
p474
S'WP'
p475
tp476
a(S'club'
p477
S'NN'
p478
tp479
a(S'292'
p480
S'CD'
p481
tp482
a(S'('
p483
g481
tp484
a(S'sublet'
p485
S'NN'
p486
tp487
a(S'3rd'
p488
S'CD'
p489
tp490
a(S'room'
p491
S'NN'
p492
tp493
a(S'ye u'
p494
S'NNP'
p495
tp496
a(S'ca u'
p497
S'NN'
p498
tp499
a(S'tango'
p500
g498
tp501
a(S'thin'
p502
S'NN'
p503
tp504
a(S'khan'
p505
g503
tp506
a(S'tong'
p507
S'JJ'
p508
tp509
a(S'nguc'
p510
S'NN'
p511
tp512
a(S'='
p513
g206
tp514
a(S'34'
p515
S'CD'
p516
tp517
a(S'ban'
p518
S'NNP'
p519
tp520
a(S'no'
p521
S'NN'
p522
tp523
a(S'interest'
p524
S'NN'
p525
tp526
a(S'lien'
p527
g525
tp528
a(S'va'
p529
S'NN'
p530
tp531
a(S'de'
p532
S'VB'
p533
tp534
a(S'bidet'
p535
S'JJ'
p536
tp537
a(S'chi'
p538
S'VBP'
p539
tp540
a(S'tie t'
p541
S'JJ'
p542
tp543
a(S'n he'
p544
S'NN'
p545
tp546
atp547
a(I12
(lp548
(S'happy'
p549
S'NNP'
p550
tp551
a(S'new'
p552
S'NNP'
p553
tp554
a(S'year'
p555
S'NNP'
p556
tp557
a(S'everyone'
p558
S'NN'
p559
tp560
a(S'success'
p561
S'NNP'
p562
tp563
a(S'happy'
p564
S'NNP'
p565
tp566
a(S'heal'
p567
S'NNP'
p568
tp569
atp570
a(I20
(lp571
(S'sun'
p572
S'NNP'
p573
tp574
a(S'resort'
p575
S'NN'
p576
tp577
a(S'Orlando'
p578
S'NNP'
p579
tp580
a(S'florid'
p581
S'NNP'
p582
tp583
atp584
a(I5
(lp585
(S'miss'
p586
S'NNP'
p587
tp588
a(S'us'
p589
S'NNP'
p590
tp591
atp592
a(I6
(lp593
(S'la'
p594
S'DT'
p595
tp596
a(S'yet'
p597
S'NN'
p598
tp599
a(S'void'
p600
S'NN'
p601
tp602
atp603
a(I0
(lp604
(S'cu o'
p605
S'NNP'
p606
tp607
a(S'nam'
p608
S'NN'
p609
tp610
a(S'nay'
p611
S'NN'
p612
tp613
a(S'co'
p614
S'NN'
p615
tp616
a(S'phi'
p617
S'NN'
p618
tp619
a(S'conga'
p620
S'IN'
p621
tp622
a(S'no'
p623
S'NN'
p624
tp625
a(S'o'
p626
S'NN'
p627
tp628
a(S'Vietnam'
p629
S'NNP'
p630
tp631
a(S'Saigon'
p632
S'NNP'
p633
tp634
a(S'ko'
p635
S'NN'
p636
tp637
a(S'pm'
p638
S'NN'
p639
tp640
a(S'n he'
p641
S'VB'
p642
tp643
atp644
a(I0
(lp645
(S'rip'
p646
S'JJ'
p647
tp648
a(S'zig'
p649
S'NNP'
p650
tp651
a(S'zig l'
p652
S'NNP'
p653
tp654
atp655
a(I4
(lp656
(S'start'
p657
S'NNP'
p658
tp659
a(S'drink'
p660
S'NN'
p661
tp662
a(S'scarlet'
p663
S'NNP'
p664
tp665
a(S'morn'
p666
S'NN'
p667
tp668
a(S'voe'
p669
S'NN'
p670
tp671
a(S'n ha'
p672
S'NN'
p673
tp674
a(S'Muong'
p675
S'IN'
p676
tp677
a(S'bias'
p678
S'NN'
p679
tp680
a(S'no'
p681
S'NN'
p682
tp683
atp684
a(I0
(lp685
(S'thank'
p686
S'NNS'
p687
tp688
a(S'omit'
p689
S'NNP'
p690
tp691
a(S'harley'
p692
S'NNP'
p693
tp694
a(S'truing'
p695
S'NNP'
p696
tp697
a(S'--'
p698
g206
tp699
a(S'175'
p700
S'CD'
p701
tp702
a(S'gob'
p703
S'NNP'
p704
tp705
a(S'drop-box'
p706
S'NNP'
p707
tp708
a(S'space'
p709
S'NN'
p710
tp711
a(S'setup'
p712
S'NN'
p713
tp714
atp715
a(I3
(lp716
(S'nay'
p717
S'NN'
p718
tp719
a(S'co'
p720
S'NN'
p721
tp722
a(S'neon'
p723
S'NN'
p724
tp725
a(S'bay'
p726
S'NN'
p727
tp728
a(S'ko'
p729
S'NN'
p730
tp731
a(S'n hi'
p732
S'NN'
p733
tp734
a(S'harley'
p735
S'NNP'
p736
tp737
a(S'truing'
p738
S'NNP'
p739
tp740
atp741
a(I2
(lp742
(S'silver'
p743
S'NN'
p744
tp745
a(S'lin'
p746
S'VBG'
p747
tp748
a(S'end'
p749
S'NN'
p750
tp751
atp752
a(I3
(lp753
(S'prob'
p754
S'RB'
p755
tp756
a(S'beauty'
p757
S'JJ'
p758
tp759
atp760
a(I0
(lp761
(S'test'
p762
S'NNP'
p763
tp764
a(S'roi'
p765
S'NN'
p766
tp767
a(S'ah'
p768
S'NN'
p769
tp770
atp771
a(I0
(lp772
(S'ca'
p773
S'MD'
p774
tp775
a(S'believe'
p776
S'VB'
p777
tp778
a(S'ova'
p779
S'NNP'
p780
tp781
a(S'high'
p782
S'NNP'
p783
tp784
a(S'high'
p785
S'NNP'
p786
tp787
a(S'high'
p788
S'NNP'
p789
tp790
atp791
a(I0
(lp792
(S'3'
p793
S'LS'
p794
tp795
atp796
a(I0
(lp797
(S'fin'
p798
S'RB'
p799
tp800
a(S'feel'
p801
S'VBZ'
p802
tp803
atp804
a(I0
(lp805
(S'all-nighter'
p806
S'JJ'
p807
tp808
a(S'mod'
p809
S'NN'
p810
tp811
a(S'beast'
p812
S'NNP'
p813
tp814
a(S'mod'
p815
S'NN'
p816
tp817
a(S'machin'
p818
S'NNP'
p819
tp820
a(S'mod'
p821
S'NN'
p822
tp823
a(S'oil'
p824
S'NNP'
p825
tp826
a(S'ready'
p827
S'NNP'
p828
tp829
atp830
a(I0
(lp831
(S'strange'
p832
S'NN'
p833
tp834
a(S'wint'
p835
S'NN'
p836
tp837
atp838
a(I1
(lp839
(S'everybody'
p840
S'NN'
p841
tp842
a(S'need'
p843
S'VBZ'
p844
tp845
a(S'break'
p846
S'NN'
p847
tp848
atp849
a(I0
(lp850
(S'tomorrow'
p851
S'NN'
p852
tp853
a(S'afternoon'
p854
S'NNP'
p855
tp856
a(S'text'
p857
S'NN'
p858
tp859
atp860
a(I0
(lp861
(S'slept'
p862
S'IN'
p863
tp864
a(S'2'
p865
S'CD'
p866
tp867
a(S'hour'
p868
S'NNS'
p869
tp870
a(S'saw y'
p871
S'NNP'
p872
tp873
atp874
a(I0
(lp875
(S'debt'
p876
S'NN'
p877
tp878
a(S'deal'
p879
S'NN'
p880
tp881
atp882
a(I0
(lp883
(S'f ml'
p884
S'NNP'
p885
tp886
a(S'post-homecomng'
p887
S'JJ'
p888
tp889
a(S'syndrome'
p890
S'NN'
p891
tp892
a(S'rush'
p893
S'NNP'
p894
tp895
a(S'quant'
p896
S'NN'
p897
tp898
atp899
a(I2
(lp900
(S'thy'
p901
S'NNP'
p902
tp903
a(S'than h'
p904
g902
tp905
a(S'p hung'
p906
S'NNP'
p907
tp908
a(S'cam'
p909
g907
tp910
a(S'Dachau'
p911
S'NNP'
p912
tp913
a(S'vow'
p914
g912
tp915
a(S'Ania'
p916
S'NNP'
p917
tp918
a(S'Congo'
p919
g917
tp920
a(S'vint'
p921
S'NNP'
p922
tp923
a(S'p ham'
p924
g922
tp925
a(S'mor'
p926
S'JJ'
p927
tp928
a(S'support'
p929
S'NN'
p930
tp931
a(S'n hi'
p932
S'NN'
p933
tp934
a(S'6'
p935
S'CD'
p936
tp937
a(S'pm'
p938
S'NN'
p939
tp940
a(S'Saigon'
p941
S'NNP'
p942
tp943
a(S'n he'
p944
S'NN'
p945
tp946
atp947
a(I0
(lp948
(S'cal'
p949
S'NN'
p950
tp951
a(S'foal'
p952
S'NN'
p953
tp954
a(S'misplace'
p955
S'VBN'
p956
tp957
a(S'scaly'
p958
S'NN'
p959
tp960
atp961
a(I0
(lp962
(S'indulge'
p963
S'NN'
p964
tp965
atp966
a(I0
(lp967
(S'snow'
p968
S'NNP'
p969
tp970
a(S'u nus'
p971
S'RB'
p972
tp973
a(S'heavy'
p974
S'JJ'
p975
tp976
a(S'start'
p977
S'NN'
p978
tp979
atp980
a(I0
(lp981
(S'eu'
p982
S'NNP'
p983
tp984
a(S'freak'
p985
S'VBG'
p986
tp987
a(S'stubborn'
p988
S'NN'
p989
tp990
a(S'damn'
p991
S'RB'
p992
tp993
a(S'long'
p994
S'RB'
p995
tp996
a(S'stock'
p997
S'NN'
p998
tp999
a(S'short'
p1000
S'RB'
p1001
tp1002
a(S'bond'
p1003
S'NN'
p1004
tp1005
a(S'go'
p1006
S'VB'
p1007
tp1008
a(S'$'
p1009
g1009
tp1010
atp1011
a(I0
(lp1012
(S'apply'
p1013
S'NNP'
p1014
tp1015
a(S'miss'
p1016
S'NNP'
p1017
tp1018
a(S'big'
p1019
S'NNP'
p1020
tp1021
a(S'earn'
p1022
S'NNS'
p1023
tp1024
a(S'revenue'
p1025
S'NNP'
p1026
tp1027
a(S'share'
p1028
S'NNP'
p1029
tp1030
a(S'tumble'
p1031
S'NNP'
p1032
tp1033
a(S'ova'
p1034
S'NNP'
p1035
tp1036
a(S'7'
p1037
S'CD'
p1038
tp1039
a(S'%'
p1040
S'NN'
p1041
tp1042
a(S'after-hours'
p1043
S'NNS'
p1044
tp1045
atp1046
a(I0
(lp1047
(S'ache'
p1048
S'NNS'
p1049
tp1050
atp1051
a(I1
(lp1052
(S'nee'
p1053
S'VBP'
p1054
tp1055
a(S'oil'
p1056
S'NN'
p1057
tp1058
atp1059
a(I2
(lp1060
(Vknowledge
p1061
S'NN'
p1062
tp1063
a(Vheart
p1064
S'NN'
p1065
tp1066
a(Vbeyond
p1067
S'IN'
p1068
tp1069
a(Vreach
p1070
S'NN'
p1071
tp1072
a(Vproof\u201d
p1073
S'NNP'
p1074
tp1075
a(VKahlil
p1076
S'NNP'
p1077
tp1078
a(Vgiber
p1079
S'NNP'
p1080
tp1081
a(Vquote
p1082
S'VBZ'
p1083
tp1084
atp1085
a(I1
(lp1086
(S'go'
p1087
S'VBP'
p1088
tp1089
a(S'baby'
p1090
S'RB'
p1091
tp1092
atp1093
a(I0
(lp1094
(S'people'
p1095
S'NNS'
p1096
tp1097
a(S'teak'
p1098
S'VB'
p1099
tp1100
a(S'path'
p1101
S'NN'
p1102
tp1103
a(S'least'
p1104
S'JJS'
p1105
tp1106
a(S'resist'
p1107
S'NN'
p1108
tp1109
atp1110
a(I3
(lp1111
(S'lift'
p1112
S'NNP'
p1113
tp1114
a(S'rid'
p1115
S'VBG'
p1116
tp1117
a(S'bicycle'
p1118
S'NNP'
p1119
tp1120
a(S'keep'
p1121
S'VB'
p1122
tp1123
a(S'bal'
p1124
S'NN'
p1125
tp1126
a(S'must'
p1127
S'MD'
p1128
tp1129
a(S'keep'
p1130
S'VB'
p1131
tp1132
a(S'move'
p1133
S'NNP'
p1134
tp1135
a(S'albert'
p1136
S'NNP'
p1137
tp1138
a(S'Weinstein'
p1139
S'NNP'
p1140
tp1141
atp1142
a(I2
(lp1143
(S'aaaaaaaaaaaaaaaaaaaaaaaaaaaaaaaaaaaaaaaaaaaaaaaaaaaa'
p1144
S'NNP'
p1145
tp1146
atp1147
a(I0
(lp1148
(S'lot'
p1149
S'NN'
p1150
tp1151
a(S'work'
p1152
S'NN'
p1153
tp1154
atp1155
a(I2
(lp1156
(S'read'
p1157
S'VBG'
p1158
tp1159
a(S'period'
p1160
S'NNP'
p1161
tp1162
a(S'mountain'
p1163
S'NNP'
p1164
tp1165
a(S'com'
p1166
S'VB'
p1167
tp1168
a(S'rescue'
p1169
S'VB'
p1170
tp1171
a(S'trim'
p1172
S'RB'
p1173
tp1174
atp1175
a(I1
(lp1176
(S'nice-guy'
p1177
S'JJ'
p1178
tp1179
a(S'empire'
p1180
S'NNP'
p1181
tp1182
atp1183
a(I3
(lp1184
(S'alway'
p1185
S'RB'
p1186
tp1187
a(S'homework'
p1188
S'NNS'
p1189
tp1190
atp1191
a(I1
(lp1192
(S'party'
p1193
S'NNP'
p1194
tp1195
a(S'party'
p1196
S'NN'
p1197
tp1198
atp1199
a(I2
(lp1200
(S'endless'
p1201
S'NN'
p1202
tp1203
atp1204
a(I0
(lp1205
(S'crash'
p1206
S'NNP'
p1207
tp1208
a(S'pandemic'
p1209
S'NNP'
p1210
tp1211
atp1212
a(I0
(lp1213
(S'sigh'
p1214
S'NN'
p1215
tp1216
a(S'sigh'
p1217
S'NN'
p1218
tp1219
a(S'sigh'
p1220
S'NN'
p1221
tp1222
atp1223
a(I6
(lp1224
(Vthought
p1225
S'NNS'
p1226
tp1227
a(Vbecome
p1228
S'VBP'
p1229
tp1230
a(Vwatch
p1231
S'NNP'
p1232
tp1233
a(Vword
p1234
S'NNS'
p1235
tp1236
a(Vbecome
p1237
S'VBP'
p1238
tp1239
a(Vaction
p1240
S'NNP'
p1241
tp1242
a(Vwatch
p1243
S'NNP'
p1244
tp1245
a(Vaction
p1246
S'NNS'
p1247
tp1248
a(Vbecome
p1249
S'VBP'
p1250
tp1251
a(Vhabit
p1252
S'NNP'
p1253
tp1254
a(Vwatch
p1255
S'NNP'
p1256
tp1257
a(Vhabit
p1258
S'NNS'
p1259
tp1260
a(Vbecome
p1261
S'VBP'
p1262
tp1263
a(Vchar-act
p1264
S'NNP'
p1265
tp1266
a(Vwatch
p1267
S'NNP'
p1268
tp1269
a(Vchar-act
p1270
S'NN'
p1271
tp1272
a(Vbecome
p1273
S'VBZ'
p1274
tp1275
a(Vdestiny\u201d
p1276
S'NN'
p1277
tp1278
a(Vzig
p1279
S'NNP'
p1280
tp1281
a(Vzig l
p1282
g1280
tp1283
a(Vkeep
p1284
S'NNP'
p1285
tp1286
a(Vthink
p1287
S'VBG'
p1288
tp1289
a(Voyster
p1290
S'NNS'
p1291
tp1292
atp1293
a(I0
(lp1294
(S'word'
p1295
S'NNS'
p1296
tp1297
atp1298
a(I2
(lp1299
(S'v ac'
p1300
S'NN'
p1301
tp1302
atp1303
a(I0
(lp1304
(S'crash'
p1305
S'NN'
p1306
tp1307
a(S'boom'
p1308
S'NN'
p1309
tp1310
atp1311
a(I1
(lp1312
(S'crash'
p1313
S'NN'
p1314
tp1315
a(S'baby'
p1316
S'RB'
p1317
tp1318
a(S'v ac'
p1319
S'NN'
p1320
tp1321
a(S'ahead'
p1322
S'RB'
p1323
tp1324
atp1325
a(I1
(lp1326
(S'freak'
p1327
S'VBG'
p1328
tp1329
a(S'freeze'
p1330
S'NN'
p1331
tp1332
a(S'wint'
p1333
S'NN'
p1334
tp1335
a(S'cloth'
p1336
S'NNS'
p1337
tp1338
atp1339
a(I4
(lp1340
(S'sentry'
p1341
S'RB'
p1342
tp1343
a(S'first'
p1344
S'JJ'
p1345
tp1346
a(S'week'
p1347
S'NN'
p1348
tp1349
atp1350
a(I1
(lp1351
(S'okay'
p1352
S'NNP'
p1353
tp1354
a(S'learn'
p1355
S'NN'
p1356
tp1357
atp1358
a(I2
(lp1359
(S'antifreeze'
p1360
S'NN'
p1361
tp1362
atp1363
a(I8
(lp1364
(S'first'
p1365
S'NNP'
p1366
tp1367
a(S'first'
p1368
S'RB'
p1369
tp1370
a(S'Friday'
p1371
S'NNP'
p1372
tp1373
a(S'pick'
p1374
S'NN'
p1375
tp1376
a(S'lin'
p1377
S'NN'
p1378
tp1379
a(S'fart'
p1380
S'VB'
p1381
tp1382
a(S'because'
p1383
S'IN'
p1384
tp1385
a(S'blow'
p1386
S'VBP'
p1387
tp1388
a(S'away'
p1389
S'RB'
p1390
tp1391
a(S'rofl'
p1392
S'NN'
p1393
tp1394
atp1395
a(I7
(lp1396
(S'class'
p1397
S'NNS'
p1398
tp1399
a(S'semester'
p1400
S'NN'
p1401
tp1402
a(S'awesome'
p1403
S'VBN'
p1404
tp1405
atp1406
a(I0
(lp1407
(S'body'
p1408
S'NNP'
p1409
tp1410
a(S'ache'
p1411
S'VBZ'
p1412
tp1413
atp1414
a(I1
(lp1415
(S'tree'
p1416
S'NNS'
p1417
tp1418
a(S'chang'
p1419
S'VBP'
p1420
tp1421
a(S'color'
p1422
S'NNS'
p1423
tp1424
atp1425
a(I4
(lp1426
(S'love'
p1427
S'NNS'
p1428
tp1429
a(S'wreath'
p1430
S'NN'
p1431
tp1432
a(S'mom'
p1433
S'NN'
p1434
tp1435
atp1436
a(I5
(lp1437
(S'routing'
p1438
S'NN'
p1439
tp1440
a(S'feel'
p1441
S'VBG'
p1442
tp1443
a(S'goo g'
p1444
S'NN'
p1445
tp1446
atp1447
a(I14
(lp1448
(S'15'
p1449
S'CD'
p1450
tp1451
a(S'hour'
p1452
S'NNS'
p1453
tp1454
a(S'sleep'
p1455
S'NN'
p1456
tp1457
a(S'nostalgic'
p1458
S'NN'
p1459
tp1460
a(S'familiar'
p1461
S'NN'
p1462
tp1463
a(S'rain'
p1464
S'NN'
p1465
tp1466
a(S'tree'
p1467
S'NNS'
p1468
tp1469
a(S'breakfast'
p1470
S'JJ'
p1471
tp1472
a(S'hot'
p1473
S'JJ'
p1474
tp1475
a(S'milk'
p1476
S'NN'
p1477
tp1478
a(S'cool'
p1479
S'NN'
p1480
tp1481
a(S'sum'
p1482
S'NN'
p1483
tp1484
a(S'end'
p1485
S'NN'
p1486
tp1487
a(S'autumn'
p1488
S'NN'
p1489
tp1490
a(S'study'
p1491
S'NN'
p1492
tp1493
a(S'love'
p1494
S'VBP'
p1495
tp1496
atp1497
a(I3
(lp1498
tp1499
a(I5
(lp1500
(S'fly'
p1501
S'RB'
p1502
tp1503
atp1504
a(I0
(lp1505
(S'real'
p1506
S'NNS'
p1507
tp1508
a(S'forgot'
p1509
S'VBN'
p1510
tp1511
a(S'much'
p1512
S'RB'
p1513
tp1514
atp1515
a(I2
(lp1516
(S'sunset'
p1517
S'NN'
p1518
tp1519
a(S'drive'
p1520
S'VBG'
p1521
tp1522
a(S'mad'
p1523
S'VBD'
p1524
tp1525
a(S'miss'
p1526
S'VBP'
p1527
tp1528
a(S'bad'
p1529
S'JJ'
p1530
tp1531
atp1532
a(I6
(lp1533
(S'tien'
p1534
S'NNP'
p1535
tp1536
a(S'this'
p1537
S'NN'
p1538
tp1539
a(S'ankh'
p1540
S'NN'
p1541
tp1542
a(S'k hong'
p1543
S'IN'
p1544
tp1545
a(S'thief'
p1546
S'NN'
p1547
tp1548
a(S'ca'
p1549
S'NN'
p1550
tp1551
a(S'chin h'
p1552
S'NN'
p1553
tp1554
a(S'em'
p1555
S'NN'
p1556
tp1557
a(S'p ha'
p1558
S'NN'
p1559
tp1560
a(S'hu'
p1561
S'NN'
p1562
tp1563
atp1564
a(I3
(lp1565
(S'pleas'
p1566
S'RB'
p1567
tp1568
a(S'pink'
p1569
S'VBP'
p1570
tp1571
a(S'spoil'
p1572
S'VBN'
p1573
tp1574
atp1575
a(I0
(lp1576
(S'fail'
p1577
S'VBD'
p1578
tp1579
a(S'plan'
p1580
S'NN'
p1581
tp1582
a(S'di'
p1583
S'NN'
p1584
tp1585
a(S'cat'
p1586
S'NN'
p1587
tp1588
a(S'to'
p1589
S'NN'
p1590
tp1591
a(S'c hung'
p1592
S'NN'
p1593
tp1594
a(S'qua'
p1595
S'NN'
p1596
tp1597
a(S'Dachau'
p1598
S'NNP'
p1599
tp1600
a(S'vow'
p1601
S'NNP'
p1602
tp1603
a(S'n hat'
p1604
S'NNP'
p1605
tp1606
atp1607
a(I1
(lp1608
(S'http'
p1609
S'NN'
p1610
tp1611
a(S'//newsbbccouk/sport2/hi/tennis/13657050stm'
p1612
S'JJ'
p1613
tp1614
atp1615
a(I4
(lp1616
(S'caught'
p1617
S'NNP'
p1618
tp1619
a(S'crash'
p1620
S'NN'
p1621
tp1622
a(S'mad'
p1623
S'VBN'
p1624
tp1625
a(S'money'
p1626
S'NN'
p1627
tp1628
atp1629
a(I0
(lp1630
(S'9pm-4am'
p1631
S'CD'
p1632
tp1633
atp1634
a(I4
(lp1635
(S'jet'
p1636
S'NN'
p1637
tp1638
a(S'lag'
p1639
S'NN'
p1640
tp1641
a(S'make'
p1642
S'VBZ'
p1643
tp1644
a(S'perfect'
p1645
S'VBP'
p1646
tp1647
a(S'overnight'
p1648
S'JJ'
p1649
tp1650
a(S'party'
p1651
S'NNS'
p1652
tp1653
atp1654
a(I2
(lp1655
(S'vietnam-party-intensive'
p1656
S'JJ'
p1657
tp1658
a(S'ta'
p1659
S'NN'
p1660
tp1661
a(S'chil'
p1662
S'NN'
p1663
tp1664
atp1665
a(I2
(lp1666
(S'0908906329'
p1667
S'CD'
p1668
tp1669
a(S'party'
p1670
S'NN'
p1671
tp1672
atp1673
a(I2
(lp1674
(S'richen'
p1675
S'NNP'
p1676
tp1677
a(S'airport'
p1678
S'NNP'
p1679
tp1680
a(S'hav'
p1681
S'VBG'
p1682
tp1683
a(S'snack'
p1684
S'NN'
p1685
tp1686
a(S'shop'
p1687
S'VBG'
p1688
tp1689
atp1690
a(I5
(lp1691
(S'duly'
p1692
S'NNP'
p1693
tp1694
a(S'fly'
p1695
S'VBG'
p1696
tp1697
a(S'so'
p1698
S'NNP'
p1699
tp1700
atp1701
a(I2
(lp1702
(S'doc'
p1703
S'NNP'
p1704
tp1705
atp1706
a(I2
(lp1707
(S'<'
p1708
S'NN'
p1709
tp1710
a(S'stew'
p1711
S'NNP'
p1712
tp1713
atp1714
a(I6
(lp1715
(S'fresh m'
p1716
S'MD'
p1717
tp1718
a(S'year'
p1719
S'NNP'
p1720
tp1721
a(S'fought'
p1722
S'VBD'
p1723
tp1724
a(S'til'
p1725
S'RB'
p1726
tp1727
a(S'last'
p1728
S'JJ'
p1729
tp1730
a(S'minute'
p1731
S'NNP'
p1732
tp1733
a(S'ft w'
p1734
S'NNP'
p1735
tp1736
atp1737
a(I2
(lp1738
(S'6205'
p1739
S'CD'
p1740
tp1741
a(S'word'
p1742
S'NNS'
p1743
tp1744
a(S'gig'
p1745
S'NNP'
p1746
tp1747
a(S'prof'
p1748
S'IN'
p1749
tp1750
atp1751
a(I2
(lp1752
(S'pang'
p1753
S'NN'
p1754
tp1755
a(S'39'
p1756
S'CD'
p1757
tp1758
a(S'word'
p1759
S'NN'
p1760
tp1761
a(S'5500'
p1762
S'CD'
p1763
tp1764
atp1765
a(I1
(lp1766
(S'last'
p1767
S'JJ'
p1768
tp1769
a(S'push'
p1770
S'NNP'
p1771
tp1772
atp1773
a(I0
(lp1774
(S'next'
p1775
S'JJ'
p1776
tp1777
a(S'push'
p1778
S'NNP'
p1779
tp1780
atp1781
a(I2
(lp1782
(S'yay'
p1783
S'NN'
p1784
tp1785
a(S'yay'
p1786
S'NN'
p1787
tp1788
a(S'csdgosdhghdklhgjkvb'
p1789
S'NN'
p1790
tp1791
a(S'hfbedvjsdhfskagdfjashbd'
p1792
S'VBD'
p1793
tp1794
atp1795
a(I0
(lp1796
(S'screwed'
p1797
S'VBD'
p1798
tp1799
a(S'screwed'
p1800
S'VBN'
p1801
tp1802
a(S'screwed'
p1803
S'VBN'
p1804
tp1805
atp1806
a(I0
(lp1807
(S'crash'
p1808
S'NN'
p1809
tp1810
atp1811
a(I1
(lp1812
(S'gam'
p1813
S'NNP'
p1814
tp1815
atp1816
a(I1
(lp1817
(S'u'
p1818
S'PRP'
p1819
tp1820
a(S'doll'
p1821
S'NN'
p1822
tp1823
a(S'stop'
p1824
S'VB'
p1825
tp1826
a(S'apparency'
p1827
S'VBG'
p1828
tp1829
atp1830
a(I1
(lp1831
(S'ready'
p1832
S'NNP'
p1833
tp1834
a(S'kick'
p1835
S'NNP'
p1836
tp1837
a(S'some'
p1838
S'DT'
p1839
tp1840
a(S'puppy'
p1841
S'NNPS'
p1842
tp1843
atp1844
a(I3
(lp1845
(S'get'
p1846
S'NN'
p1847
tp1848
a(g1818
S'NNP'
p1849
tp1850
a(S'doll'
p1851
S'NN'
p1852
tp1853
atp1854
a(I0
(lp1855
(S'thrive'
p1856
S'JJ'
p1857
tp1858
atp1859
a(I2
(lp1860
(S'light'
p1861
S'NN'
p1862
tp1863
a(S'ther'
p1864
S'RB'
p1865
tp1866
atp1867
a(I1
(lp1868
(S'cant'
p1869
S'JJ'
p1870
tp1871
a(S'stat'
p1872
S'VBN'
p1873
tp1874
a(S'sign'
p1875
S'JJ'
p1876
tp1877
atp1878
a(I0
(lp1879
(S'icon'
p1880
S'NNP'
p1881
tp1882
a(S'av l'
p1883
S'NNP'
p1884
tp1885
a(S'ax t'
p1886
S'NNP'
p1887
tp1888
atp1889
a(I0
(lp1890
(S'icon'
p1891
S'NNP'
p1892
tp1893
a(S'win'
p1894
S'NNP'
p1895
tp1896
atp1897
a(I1
(lp1898
(S'dcmvclcmnucddd'
p1899
S'NN'
p1900
tp1901
a(S'met'
p1902
S'VBD'
p1903
tp1904
atp1905
a(I4
(lp1906
(S'miss'
p1907
S'NNP'
p1908
tp1909
a(S'sin-gap'
p1910
S'NNP'
p1911
tp1912
atp1913
a(I0
(lp1914
(S'ready'
p1915
S'NNP'
p1916
tp1917
a(S'crash'
p1918
S'NNP'
p1919
tp1920
a(S'18'
p1921
S'CD'
p1922
tp1923
a(S'hr'
p1924
S'NNS'
p1925
tp1926
atp1927
a(I0
(lp1928
(S'big'
p1929
S'NNP'
p1930
tp1931
a(S'load'
p1932
S'NNP'
p1933
tp1934
a(S'hid'
p1935
S'JJ'
p1936
tp1937
a(S'inform'
p1938
S'NN'
p1939
tp1940
a(S'rev'
p1941
S'VBN'
p1942
tp1943
a(S'decision'
p1944
S'NNS'
p1945
tp1946
a(S'mad'
p1947
S'VBN'
p1948
tp1949
atp1950
a(I2
(lp1951
(S'ca'
p1952
S'NNP'
p1953
tp1954
a(S'go'
p1955
S'VB'
p1956
tp1957
a(S'tomorrow'
p1958
S'NNP'
p1959
tp1960
a(S'thx'
p1961
S'NN'
p1962
tp1963
a(S'wa'
p1964
S'VBD'
p1965
tp1966
a(S'midterm'
p1967
S'NN'
p1968
tp1969
a(S'last'
p1970
S'JJ'
p1971
tp1972
a(S'week'
p1973
S'NNP'
p1974
tp1975
a(S'hel'
p1976
S'NNP'
p1977
tp1978
a(S'ye'
p1979
S'NN'
p1980
tp1981
a(S'want'
p1982
S'VBP'
p1983
tp1984
a(S'restart'
p1985
S'VB'
p1986
tp1987
a(S'another'
p1988
S'DT'
p1989
tp1990
a(S'round'
p1991
S'NN'
p1992
tp1993
a(g626
S'NNP'
p1994
tp1995
a(S'm'
p1996
g1994
tp1997
a(S'g'
p1998
S'NNP'
p1999
tp2000
atp2001
a(I0
(lp2002
(S'ogre'
p2003
S'JJ'
p2004
tp2005
a(S'start'
p2006
S'NN'
p2007
tp2008
a(S'beauty'
p2009
S'JJ'
p2010
tp2011
atp2012
a(I0
(lp2013
(S'mor'
p2014
S'RBR'
p2015
tp2016
a(S'upgrade'
p2017
S'NNS'
p2018
tp2019
a(S'blab'
p2020
S'VBP'
p2021
tp2022
atp2023
a(I1
(lp2024
(S'stress'
p2025
S'NN'
p2026
tp2027
a(S'level'
p2028
S'NN'
p2029
tp2030
a(S'spike'
p2031
S'VBZ'
p2032
tp2033
a(S'post'
p2034
S'NN'
p2035
tp2036
a(S'mid-terms'
p2037
S'NNS'
p2038
tp2039
atp2040
a(I0
(lp2041
(S'reply'
p2042
S'VBG'
p2043
tp2044
a(S'ac-cum'
p2045
S'VBN'
p2046
tp2047
a(S'email'
p2048
S'NNS'
p2049
tp2050
a(S'mid-terms'
p2051
S'NNS'
p2052
tp2053
atp2054
a(I3
(lp2055
(S'spring'
p2056
S'VBG'
p2057
tp2058
atp2059
a(I1
(lp2060
(S'attempt'
p2061
S'VBD'
p2062
tp2063
a(S'us'
p2064
S'VB'
p2065
tp2066
a(S'idiom'
p2067
S'NN'
p2068
tp2069
a(S'backs'
p2070
S'NN'
p2071
tp2072
a(S'drive'
p2073
S'NN'
p2074
tp2075
a(S'mistook'
p2076
S'NN'
p2077
tp2078
a(S'back-do'
p2079
S'NN'
p2080
tp2081
a(S'drive'
p2082
S'NN'
p2083
tp2084
a(S'f'
p2085
S'NNP'
p2086
tp2087
a(g1996
S'NNP'
p2088
tp2089
a(S'l'
p2090
S'NNP'
p2091
tp2092
atp2093
a(I2
(lp2094
(S'knock'
p2095
S'VBN'
p2096
tp2097
a(S'stand'
p2098
S'VB'
p2099
tp2100
atp2101
a(I1
(lp2102
(S'sun'
p2103
S'NNP'
p2104
tp2105
atp2106
a(I1
(lp2107
(S'jap'
p2108
S'NNP'
p2109
tp2110
a(S'luck'
p2111
S'NNP'
p2112
tp2113
a(S'stop'
p2114
S'VB'
p2115
tp2116
a(S'spoil'
p2117
S'VBG'
p2118
tp2119
a(S'party'
p2120
S'NN'
p2121
tp2122
atp2123
a(I3
(lp2124
(S'ope c'
p2125
S'NNP'
p2126
tp2127
a(S'joke'
p2128
S'NN'
p2129
tp2130
a(S'lol'
p2131
S'NNP'
p2132
tp2133
a(S'want'
p2134
S'VBP'
p2135
tp2136
a(S'high'
p2137
S'JJR'
p2138
tp2139
a(S'oil'
p2140
S'NN'
p2141
tp2142
a(S'prick'
p2143
S'NN'
p2144
tp2145
a(S'care'
p2146
S'NNS'
p2147
tp2148
a(S'economy'
p2149
S'JJ'
p2150
tp2151
a(S'grow'
p2152
S'NNP'
p2153
tp2154
atp2155
a(I10
(lp2156
(S'deserve'
p2157
S'NNP'
p2158
tp2159
a(S'middle'
p2160
S'NNP'
p2161
tp2162
a(S'fling'
p2163
S'NNP'
p2164
tp2165
atp2166
a(I4
(lp2167
(S'antifreeze'
p2168
S'NN'
p2169
tp2170
a(S'awesome'
p2171
S'NN'
p2172
tp2173
atp2174
a(I0
(lp2175
(S'bought'
p2176
S'VBD'
p2177
tp2178
a(S'usurp'
p2179
S'NN'
p2180
tp2181
a(S'pres'
p2182
S'NN'
p2183
tp2184
atp2185
a(I3
(lp2186
(S'quark'
p2187
S'NNP'
p2188
tp2189
a(S'ind-ones'
p2190
S'NNP'
p2191
tp2192
a(S'sou'
p2193
S'NNP'
p2194
tp2195
a(S'east'
p2196
S'NNP'
p2197
tp2198
atp2199
a(I2
(lp2200
(S'economy'
p2201
S'NNP'
p2202
tp2203
a(S'cure'
p2204
S'NNP'
p2205
tp2206
a(S'216000'
p2207
S'CD'
p2208
tp2209
a(S'job'
p2210
S'NNS'
p2211
tp2212
a(S'march'
p2213
S'NNP'
p2214
tp2215
a(S'unemploy'
p2216
S'NNP'
p2217
tp2218
a(S'rat'
p2219
S'NNP'
p2220
tp2221
a(S'drop'
p2222
S'NNP'
p2223
tp2224
a(S'88'
p2225
S'CD'
p2226
tp2227
a(g1040
S'NN'
p2228
tp2229
a(S'bet'
p2230
S'NNP'
p2231
tp2232
a(S'expect'
p2233
S'NNP'
p2234
tp2235
a(S'ogre'
p2236
S'NNP'
p2237
tp2238
a(S'birthday'
p2239
S'NNP'
p2240
tp2241
a(S'win'
p2242
S'NNP'
p2243
tp2244
a(S'duh'
p2245
S'NN'
p2246
tp2247
atp2248
a(I1
(lp2249
(S'mean'
p2250
S'JJ'
p2251
tp2252
a(S'birthday'
p2253
S'NN'
p2254
tp2255
a(S'v'
p2256
S'NNP'
p2257
tp2258
a(S'pleas'
p2259
S'VB'
p2260
tp2261
a(S'pray'
p2262
S'NN'
p2263
tp2264
a(g1818
S'NNP'
p2265
tp2266
a(S'march'
p2267
S'NNP'
p2268
tp2269
a(S'job'
p2270
S'NN'
p2271
tp2272
a(S'report'
p2273
g2271
tp2274
a(S'210000'
p2275
S'CD'
p2276
tp2277
a(S'fed'
p2278
S'NNP'
p2279
tp2280
a(S'continue'
p2281
S'VB'
p2282
tp2283
a(S'qe2'
p2284
S'NNP'
p2285
tp2286
a(S'nevi'
p2287
S'RB'
p2288
tp2289
a(S'rev'
p2290
g2288
tp2291
a(S'meant'
p2292
S'NN'
p2293
tp2294
a(S'qe3'
p2295
S'NNP'
p2296
tp2297
a(S'spy'
p2298
g2296
tp2299
a(S'rial'
p2300
S'RB'
p2301
tp2302
a(S'above'
p2303
S'IN'
p2304
tp2305
a(S'1330'
p2306
S'CD'
p2307
tp2308
a(g1818
S'PRP'
p2309
tp2310
a(S'duh'
p2311
S'NN'
p2312
tp2313
a(S'thank'
p2314
S'NNS'
p2315
tp2316
a(S'guy'
p2317
S'NNS'
p2318
tp2319
a(S'sweet'
p2320
S'JJ'
p2321
tp2322
a(S'love'
p2323
S'RB'
p2324
tp2325
a(S'birthday'
p2326
S'NN'
p2327
tp2328
a(S'person'
p2329
S'NNP'
p2330
tp2331
a(S'reply'
p2332
S'VBZ'
p2333
tp2334
a(S'spasm'
p2335
S'VBN'
p2336
tp2337
a(S'soon'
p2338
S'-NONE-'
p2339
tp2340
a(S'crook'
p2341
S'NNP'
p2342
tp2343
a(S'fraud'
p2344
S'VBZ'
p2345
tp2346
a(S'liq u'
p2347
S'NN'
p2348
tp2349
a(S'sex'
p2350
g2348
tp2351
a(S'love'
p2352
S'VBP'
p2353
tp2354
a(S'peach'
p2355
S'NN'
p2356
tp2357
a(S'mind'
p2358
S'NNP'
p2359
tp2360
a(S'cheer'
p2361
S'NNP'
p2362
tp2363
atp2364
a(I0
(lp2365
(S'track'
p2366
S'NNP'
p2367
tp2368
a(S'win'
p2369
S'NNP'
p2370
tp2371
a(S'duh'
p2372
S'NNP'
p2373
tp2374
atp2375
a(I0
(lp2376
(S'caught'
p2377
S'NNP'
p2378
tp2379
a(S'biz'
p2380
S'NNP'
p2381
tp2382
a(S'+'
p2383
S'NNP'
p2384
tp2385
a(g865
S'CD'
p2386
tp2387
a(S'breakout'
p2388
S'NNS'
p2389
tp2390
a(S'week'
p2391
S'NNP'
p2392
tp2393
a(S'awesome'
p2394
S'NNP'
p2395
tp2396
atp2397
a(I0
(lp2398
(S'noth'
p2399
S'NN'
p2400
tp2401
a(S'els'
p2402
S'RB'
p2403
tp2404
a(S'matter'
p2405
S'NNS'
p2406
tp2407
a(S'march'
p2408
S'NNP'
p2409
tp2410
a(S'job'
p2411
S'NNP'
p2412
tp2413
a(S'report'
p2414
S'NN'
p2415
tp2416
a(S'Friday'
p2417
S'NNP'
p2418
tp2419
atp2420
a(I0
(lp2421
(S'ca'
p2422
S'NNP'
p2423
tp2424
a(S'fathom'
p2425
S'NNP'
p2426
tp2427
a(S'thous'
p2428
S'NNP'
p2429
tp2430
a(S'prick'
p2431
S'NN'
p2432
tp2433
a(S'slip'
p2434
S'NNS'
p2435
tp2436
a(S'cos-um'
p2437
S'NNP'
p2438
tp2439
a(S'confide'
p2440
S'NN'
p2441
tp2442
a(S'slip'
p2443
S'NNS'
p2444
tp2445
a(S'mor'
p2446
S'RBR'
p2447
tp2448
a(S'expect'
p2449
S'VBN'
p2450
tp2451
a(S'market'
p2452
S'NN'
p2453
tp2454
a(S'rally'
p2455
S'NNS'
p2456
tp2457
a(S'crack-head'
p2458
S'NNS'
p2459
tp2460
atp2461
a(I2
(lp2462
(S'funny'
p2463
S'NNP'
p2464
tp2465
a(S'oil'
p2466
S'NN'
p2467
tp2468
a(S'tank'
p2469
S'NN'
p2470
tp2471
a(S'hijack'
p2472
S'VBN'
p2473
tp2474
a(S'pirate'
p2475
S'NNS'
p2476
tp2477
a(S'bomb'
p2478
S'-NONE-'
p2479
tp2480
a(S'threat'
p2481
S'NN'
p2482
tp2483
a(S'apply'
p2484
S'NNP'
p2485
tp2486
a(S'soil'
p2487
S'NN'
p2488
tp2489
a(S'risk'
p2490
S'NN'
p2491
tp2492
a(S'chao'
p2493
S'NNS'
p2494
tp2495
a(S'spread'
p2496
S'VBN'
p2497
tp2498
a(g1818
S'NNP'
p2499
tp2500
atp2501
a(I0
(lp2502
(S'pirate'
p2503
S'NNS'
p2504
tp2505
a(S'hijack'
p2506
S'VBD'
p2507
tp2508
a(S'oil'
p2509
S'NN'
p2510
tp2511
a(S'tank'
p2512
S'NN'
p2513
tp2514
a(S'lol'
p2515
S'NN'
p2516
tp2517
atp2518
a(I0
(lp2519
(S'stock'
p2520
S'NNS'
p2521
tp2522
a(S'in-it'
p2523
S'RB'
p2524
tp2525
a(S'par'
p2526
S'VBN'
p2527
tp2528
a(S'loss'
p2529
S'NNS'
p2530
tp2531
a(S'move'
p2532
S'VBD'
p2533
tp2534
a(S'slight'
p2535
S'RB'
p2536
tp2537
a(S'high'
p2538
S'JJR'
p2539
tp2540
a(S'new'
p2541
S'NN'
p2542
tp2543
a(S'consume'
p2544
S'NN'
p2545
tp2546
a(S'sentry'
p2547
g2545
tp2548
a(S'fuel'
p2549
S'VBD'
p2550
tp2551
a(g483
S'CD'
p2552
tp2553
a(S'expect'
p2554
S'VBN'
p2555
tp2556
a(S')'
p2557
S'-NONE-'
p2558
tp2559
a(S'march'
p2560
S'NNP'
p2561
tp2562
a(S'cnbc'
p2563
g2561
tp2564
a(S'dumb'
p2565
S'NN'
p2566
tp2567
atp2568
a(I0
(lp2569
(S're-think'
p2570
S'VB'
p2571
tp2572
a(S'bull'
p2573
S'NNS'
p2574
tp2575
a(S'sud'
p2576
S'JJ'
p2577
tp2578
a(S'idea'
p2579
S'NN'
p2580
tp2581
a(S'strike'
p2582
S'VB'
p2583
tp2584
a(S'anytime'
p2585
S'RB'
p2586
tp2587
a(S'glob'
p2588
S'JJ'
p2589
tp2590
a(S'chao'
p2591
S'NNS'
p2592
tp2593
atp2594
a(I0
(lp2595
(S'earthquake'
p2596
S'NN'
p2597
tp2598
a(S'Thailand'
p2599
S'NNP'
p2600
tp2601
atp2602
a(I0
(lp2603
(S'mu'
p2604
S'NNP'
p2605
tp2606
atp2607
a(I0
(lp2608
(S'mom'
p2609
S'NNP'
p2610
tp2611
a(S'true'
p2612
S'NN'
p2613
tp2614
atp2615
a(I2
(lp2616
(S'ching'
p2617
S'VBG'
p2618
tp2619
a(S'c hong'
p2620
S'NNP'
p2621
tp2622
a(S'ling'
p2623
S'NNP'
p2624
tp2625
a(S'long'
p2626
S'NNP'
p2627
tp2628
a(S'ting'
p2629
S'NNP'
p2630
tp2631
a(S'tong'
p2632
S'NNP'
p2633
tp2634
a(S'canyon'
p2635
S'NN'
p2636
tp2637
atp2638
a(I0
(lp2639
(S'beauty'
p2640
S'JJ'
p2641
tp2642
a(S'fin'
p2643
S'NN'
p2644
tp2645
a(S'ogre'
p2646
S'JJ'
p2647
tp2648
a(S'week'
p2649
S'NN'
p2650
tp2651
atp2652
a(I0
(lp2653
(S'risk'
p2654
S'VB'
p2655
tp2656
a(S'tid'
p2657
S'NN'
p2658
tp2659
atp2660
a(I0
(lp2661
(S'beauty'
p2662
S'NNP'
p2663
tp2664
a(S'fin'
p2665
S'VBP'
p2666
tp2667
a(S'biz'
p2668
S'NNP'
p2669
tp2670
atp2671
a(I0
(lp2672
(S'eu'
p2673
S'NNP'
p2674
tp2675
a(S'energy'
p2676
S'NNP'
p2677
tp2678
a(S'min'
p2679
S'NNP'
p2680
tp2681
a(S'jam'
p2682
S'VB'
p2683
tp2684
a(S'market'
p2685
S'NN'
p2686
tp2687
a(S'unsubstantial'
p2688
S'JJ'
p2689
tp2690
a(S'stat'
p2691
S'NN'
p2692
tp2693
atp2694
a(I0
(lp2695
(S'hang'
p2696
S'NNP'
p2697
tp2698
a(S'biz'
p2699
S'NNP'
p2700
tp2701
atp2702
a(I0
(lp2703
(S'luck'
p2704
S'VBD'
p2705
tp2706
a(S'gam'
p2707
S'NN'
p2708
tp2709
a(S'kid'
p2710
S'NNP'
p2711
tp2712
atp2713
a(I0
(lp2714
(S'jap'
p2715
S'NNP'
p2716
tp2717
a(S'blow'
p2718
S'VBZ'
p2719
tp2720
a(S'crack'
p2721
S'NN'
p2722
tp2723
a(S'market'
p2724
S'NN'
p2725
tp2726
atp2727
a(I0
(lp2728
(S'b'
p2729
S'LS'
p2730
tp2731
a(g1998
S'NNP'
p2732
tp2733
atp2734
a(I0
(lp2735
tp2736
a(I0
(lp2737
(S'snow'
p2738
S'NNP'
p2739
tp2740
atp2741
a(I0
(lp2742
(S'dim'
p2743
S'NNP'
p2744
tp2745
a(S'sum'
p2746
S'NNP'
p2747
tp2748
a(S'hungry'
p2749
S'NN'
p2750
tp2751
atp2752
a(I1
(lp2753
(S'rock'
p2754
S'VB'
p2755
tp2756
a(S'place'
p2757
S'NN'
p2758
tp2759
atp2760
a(I1
(lp2761
(S'mercy'
p2762
S'NNP'
p2763
tp2764
atp2765
a(I0
(lp2766
tp2767
a(I1
(lp2768
(S'crush'
p2769
S'VBD'
p2770
tp2771
a(S'cab'
p2772
S'NN'
p2773
tp2774
atp2775
a(I0
(lp2776
(S'c no'
p2777
S'NNP'
p2778
tp2779
atp2780
a(I1
(lp2781
(S'red'
p2782
S'NNP'
p2783
tp2784
a(S'oh'
p2785
S'NNP'
p2786
tp2787
a(S'boy'
p2788
S'NNP'
p2789
tp2790
a(S'red'
p2791
S'NNP'
p2792
tp2793
atp2794
a(I2
(lp2795
(S'1st'
p2796
S'CD'
p2797
tp2798
a(S'march'
p2799
S'NNP'
p2800
tp2801
a(S'red'
p2802
S'NNP'
p2803
tp2804
a(S'start'
p2805
S'VBP'
p2806
tp2807
a(S'pump'
p2808
S'VBG'
p2809
tp2810
atp2811
a(I0
(lp2812
(S'busy'
p2813
S'NNP'
p2814
tp2815
a(S'bee'
p2816
S'NNP'
p2817
tp2818
atp2819
a(I1
(lp2820
(S'green'
p2821
S'NNP'
p2822
tp2823
atp2824
a(I0
(lp2825
(S'c no'
p2826
S'NNP'
p2827
tp2828
atp2829
a(I1
(lp2830
(S'hyp'
p2831
S'NNP'
p2832
tp2833
a(S'herd'
p2834
S'NNP'
p2835
tp2836
a(S'psychology'
p2837
S'NNP'
p2838
tp2839
atp2840
a(I0
(lp2841
(S'black'
p2842
S'NNP'
p2843
tp2844
a(S'tuesday'
p2845
S'NNP'
p2846
tp2847
a(S'com'
p2848
S'VBP'
p2849
tp2850
a(S'pump'
p2851
S'VBG'
p2852
tp2853
atp2854
a(I0
(lp2855
(S'soc'
p2856
S'JJ'
p2857
tp2858
a(S'breeze'
p2859
S'NNP'
p2860
tp2861
a(S'&'
p2862
S'CC'
p2863
tp2864
a(S'star'
p2865
S'NNP'
p2866
tp2867
a(S'nevi'
p2868
S'NNP'
p2869
tp2870
a(S'sleep'
p2871
S'NNP'
p2872
tp2873
atp2874
a(I0
(lp2875
(S'fin'
p2876
S'RB'
p2877
tp2878
a(S'shave'
p2879
S'VB'
p2880
tp2881
a(S'include'
p2882
S'VBG'
p2883
tp2884
a(S'scar'
p2885
S'NN'
p2886
tp2887
atp2888
a(I0
(lp2889
(S'fin'
p2890
S'RB'
p2891
tp2892
a(S'op'
p2893
S'VB'
p2894
tp2895
a(S'room'
p2896
S'NN'
p2897
tp2898
a(S'window'
p2899
S'NN'
p2900
tp2901
a(S'ogre'
p2902
S'NNP'
p2903
tp2904
a(S'wreath'
p2905
S'NN'
p2906
tp2907
atp2908
a(I1
(lp2909
(S'flood'
p2910
S'JJ'
p2911
tp2912
a(S'market'
p2913
S'NN'
p2914
tp2915
a(S'analyst'
p2916
S'NN'
p2917
tp2918
a(S'report'
p2919
S'NNS'
p2920
tp2921
a(S'stack'
p2922
S'VBG'
p2923
tp2924
a(S'Friday'
p2925
S'NNP'
p2926
tp2927
a(S'read'
p2928
S'NN'
p2929
tp2930
atp2931
a(I0
(lp2932
(S'v-green'
p2933
S'JJ'
p2934
tp2935
atp2936
a(I2
(lp2937
(S'green'
p2938
S'NNP'
p2939
tp2940
a(S'green'
p2941
S'NNP'
p2942
tp2943
a(S'green'
p2944
S'NNP'
p2945
tp2946
atp2947
a(I0
(lp2948
(g2256
S'NNP'
p2949
tp2950
atp2951
a(I0
(lp2952
(S'think'
p2953
S'NNP'
p2954
tp2955
atp2956
a(I0
(lp2957
(S'way'
p2958
S'NN'
p2959
tp2960
a(S'hawk'
p2961
S'NNP'
p2962
tp2963
atp2964
a(I0
(lp2965
(S'Cambridge'
p2966
S'NNP'
p2967
tp2968
atp2969
a(I0
(lp2970
(S'pork'
p2971
S'NN'
p2972
tp2973
a(S'soy'
p2974
S'NN'
p2975
tp2976
a(S'mu y'
p2977
S'NN'
p2978
tp2979
a(S'pay'
p2980
S'NN'
p2981
tp2982
atp2983
a(I1
(lp2984
(S'support'
p2985
S'NN'
p2986
tp2987
a(S'ear'
p2988
S'RB'
p2989
tp2990
a(S'detect'
p2991
S'NN'
p2992
tp2993
a(S'ova'
p2994
S'JJ'
p2995
tp2996
atp2997
a(I2
(lp2998
(S'test'
p2999
S'NN'
p3000
tp3001
atp3002
a(I0
(lp3003
(S'semester'
p3004
S'NNP'
p3005
tp3006
a(S'class'
p3007
S'NNP'
p3008
tp3009
a(S'rock'
p3010
S'NNP'
p3011
tp3012
atp3013
a(I2
(lp3014
(S'textbook'
p3015
S'NNS'
p3016
tp3017
a(S'1st'
p3018
S'CD'
p3019
tp3020
a(S'stem'
p3021
S'NN'
p3022
tp3023
a(S'700'
p3024
S'CD'
p3025
tp3026
a(S'2nd'
p3027
S'CD'
p3028
tp3029
a(S'stem'
p3030
S'NN'
p3031
tp3032
a(S'1000'
p3033
S'CD'
p3034
tp3035
a(g1708
S'CD'
p3036
tp3037
atp3038
a(I0
(lp3039
(S'blossom'
p3040
S'NNP'
p3041
tp3042
a(S'test'
p3043
S'NNP'
p3044
tp3045
atp3046
a(I0
(lp3047
(S'test'
p3048
S'NNP'
p3049
tp3050
atp3051
a(I1
(lp3052
(g2557
S'``'
p3053
tp3054
atp3055
a(I0
(lp3056
(S'know'
p3057
S'VBP'
p3058
tp3059
a(S'car'
p3060
S'VB'
p3061
tp3062
a(S'**'
p3063
S'-NONE-'
p3064
tp3065
atp3066
a(I0
(lp3067
(S'come'
p3068
S'VBZ'
p3069
tp3070
a(S'dead'
p3071
S'JJ'
p3072
tp3073
a(S'week'
p3074
S'NN'
p3075
tp3076
atp3077
a(I1
(lp3078
(S'sick'
p3079
S'NNP'
p3080
tp3081
a(S'link'
p3082
S'NNP'
p3083
tp3084
a(S'pig'
p3085
S'NNP'
p3086
tp3087
atp3088
a(I0
(lp3089
(S'short'
p3090
S'JJ'
p3091
tp3092
atp3093
a(I0
(lp3094
(S'lick'
p3095
S'VBG'
p3096
tp3097
atp3098
a(I1
(lp3099
(S'want'
p3100
S'VBP'
p3101
tp3102
a(S'gambol'
p3103
S'JJ'
p3104
tp3105
a(S'buy'
p3106
S'NN'
p3107
tp3108
a(S'oil'
p3109
S'NN'
p3110
tp3111
a(S'11am'
p3112
S'CD'
p3113
tp3114
a(S'tow'
p3115
S'NN'
p3116
tp3117
a(S'morn'
p3118
S'NN'
p3119
tp3120
atp3121
a(I2
(lp3122
(S'chines'
p3123
S'JJ'
p3124
tp3125
a(S'new'
p3126
S'NNP'
p3127
tp3128
a(S'year'
p3129
S'NNP'
p3130
tp3131
atp3132
a(I0
(lp3133
(S'beat'
p3134
S'NNP'
p3135
tp3136
a(S'market'
p3137
S'NN'
p3138
tp3139
atp3140
a(I0
(lp3141
(S'let'
p3142
S'NNP'
p3143
tp3144
a(S'go'
p3145
S'NN'
p3146
tp3147
a(S'earn'
p3148
S'NNS'
p3149
tp3150
atp3151
a(I1
(lp3152
(S'track'
p3153
S'NN'
p3154
tp3155
atp3156
a(I1
(lp3157
(S'ogre'
p3158
S'NNP'
p3159
tp3160
a(S'oil'
p3161
S'NNP'
p3162
tp3163
atp3164
a(I0
(lp3165
(S'read'
p3166
S'VBD'
p3167
tp3168
atp3169
a(I0
(lp3170
(S'tie u'
p3171
S'NNP'
p3172
tp3173
a(S'conga'
p3174
S'NNP'
p3175
tp3176
a(S'gang'
p3177
S'NNP'
p3178
tp3179
a(S'ho'
p3180
S'NNP'
p3181
tp3182
atp3183
a(I0
(lp3184
(S'freshest'
p3185
S'JJS'
p3186
tp3187
a(S'air'
p3188
S'NN'
p3189
tp3190
a(S'thickest'
p3191
S'JJS'
p3192
tp3193
a(S'snow'
p3194
S'NNP'
p3195
tp3196
atp3197
a(I4
(lp3198
(S'omg'
p3199
S'NNP'
p3200
tp3201
a(S'old'
p3202
S'JJ'
p3203
tp3204
a(S'ogre'
p3205
S'NN'
p3206
tp3207
a(S'friend'
p3208
S'NNS'
p3209
tp3210
a(S'get'
p3211
S'VB'
p3212
tp3213
a(S'marry'
p3214
S'VBN'
p3215
tp3216
atp3217
a(I5
(lp3218
(S'freshest'
p3219
S'JJS'
p3220
tp3221
a(S'air'
p3222
S'NN'
p3223
tp3224
a(S'thickest'
p3225
S'JJS'
p3226
tp3227
a(S'snow'
p3228
S'NNP'
p3229
tp3230
atp3231
a(I0
(lp3232
(S'holiday'
p3233
S'NN'
p3234
tp3235
a(S'rial'
p3236
S'RB'
p3237
tp3238
atp3239
a(I0
(lp3240
(S'ol'
p3241
S'NNP'
p3242
tp3243
a(S'ol'
p3244
S'NNP'
p3245
tp3246
atp3247
a(I0
(lp3248
(S'riv'
p3249
S'NNP'
p3250
tp3251
a(S'run'
p3252
S'NNP'
p3253
tp3254
atp3255
a(I4
(lp3256
(S'31'
p3257
S'CD'
p3258
tp3259
a(S'page'
p3260
S'NNS'
p3261
tp3262
a(S'36'
p3263
S'CD'
p3264
tp3265
a(S'hour'
p3266
S'NNS'
p3267
tp3268
a(S'continue'
p3269
S'JJ'
p3270
tp3271
a(S'econ'
p3272
S'NNS'
p3273
tp3274
a(S'10'
p3275
S'CD'
p3276
tp3277
a(S'day'
p3278
S'NNS'
p3279
tp3280
a(S'3-hour'
p3281
S'CD'
p3282
tp3283
a(S'sleep'
p3284
S'NN'
p3285
tp3286
a(S'expect'
p3287
S'VBD'
p3288
tp3289
atp3290
a(I1
(lp3291
(S'set'
p3292
S'VB'
p3293
tp3294
a(S'record'
p3295
S'NNP'
p3296
tp3297
a(S'keep'
p3298
S'NNP'
p3299
tp3300
a(S'follow'
p3301
S'VBG'
p3302
tp3303
a(S'fob'
p3304
S'NN'
p3305
tp3306
atp3307
a(I0
(lp3308
(S'common'
p3309
S'JJ'
p3310
tp3311
atp3312
a(I2
(lp3313
(S'ppl'
p3314
S'NNP'
p3315
tp3316
a(S'stop'
p3317
S'VB'
p3318
tp3319
a(S'post'
p3320
S'VBG'
p3321
tp3322
a(S'v ac'
p3323
S'NN'
p3324
tp3325
a(S'plan'
p3326
S'NNS'
p3327
tp3328
a(S'because'
p3329
S'IN'
p3330
tp3331
a(S'person'
p3332
S'NN'
p3333
tp3334
a(S'struggling'
p3335
S'VBG'
p3336
tp3337
a(S'final'
p3338
S'NNS'
p3339
tp3340
atp3341
a(I0
(lp3342
(S'aaaaaaaaaaaaaaaaaaaaaaaaaaaaaaaaaaaaaaaaaaaaaaaaaaaaaaaaa'
p3343
S'NNP'
p3344
tp3345
atp3346
a(I0
(lp3347
(S'tui'
p3348
S'NNP'
p3349
tp3350
a(S'may'
p3351
S'MD'
p3352
tp3353
a(S'tao'
p3354
S'VB'
p3355
tp3356
a(S'min h'
p3357
S'NNP'
p3358
tp3359
a(S'hong'
p3360
S'NNP'
p3361
tp3362
a(S'guy'
p3363
S'NN'
p3364
tp3365
a(S'dpt'
p3366
S'NN'
p3367
tp3368
a(g626
S'NN'
p3369
tp3370
a(S'van'
p3371
S'NNP'
p3372
tp3373
a(S'tao'
p3374
S'NN'
p3375
tp3376
a(S'no i'
p3377
S'NN'
p3378
tp3379
a(S'chum'
p3380
S'NN'
p3381
tp3382
a(S'coin'
p3383
S'NN'
p3384
tp3385
atp3386
a(I0
(lp3387
(S'd cm'
p3388
S'NNP'
p3389
tp3390
a(S'thang'
p3391
S'VBD'
p3392
tp3393
a(S'ml'
p3394
S'NN'
p3395
tp3396
atp3397
a(I0
(lp3398
(S'come'
p3399
S'VBZ'
p3400
tp3401
a(S'favorite'
p3402
S'JJ'
p3403
tp3404
a(S'subject'
p3405
S'NN'
p3406
tp3407
atp3408
a(I4
(lp3409
(S'every'
p3410
S'DT'
p3411
tp3412
a(S'minute'
p3413
S'NN'
p3414
tp3415
a(S'count'
p3416
S'NNP'
p3417
tp3418
a(S'every'
p3419
S'NNP'
p3420
tp3421
a(S'piece'
p3422
S'NN'
p3423
tp3424
a(S'effort'
p3425
S'NN'
p3426
tp3427
a(S'count'
p3428
S'NNS'
p3429
tp3430
atp3431
a(I0
(lp3432
(S'thous'
p3433
S'VBG'
p3434
tp3435
a(S'bloom'
p3436
S'VB'
p3437
tp3438
atp3439
a(I0
(lp3440
(S'keep'
p3441
S'VB'
p3442
tp3443
a(S'subsidy'
p3444
S'VBG'
p3445
tp3446
a(S'renew'
p3447
S'JJ'
p3448
tp3449
a(S'anergy'
p3450
S'NN'
p3451
tp3452
atp3453
a(I1
(lp3454
(S'love'
p3455
S'NNP'
p3456
tp3457
a(S'new'
p3458
S'NNP'
p3459
tp3460
a(S'ebb'
p3461
S'NNP'
p3462
tp3463
a(S'shear'
p3464
S'NNP'
p3465
tp3466
a(S'joy'
p3467
S'NNP'
p3468
tp3469
a(S'^^'
p3470
S'NNP'
p3471
tp3472
atp3473
a(I0
(lp3474
(Vgust
p3475
S'VBP'
p3476
tp3477
a(Vmontage
p3478
S'-NONE-'
p3479
tp3480
a(Vgust
p3481
S'VBP'
p3482
tp3483
a(Vtu
p3484
S'PRP'
p3485
tp3486
atp3487
a(I0
(lp3488
(S'real'
p3489
S'RB'
p3490
tp3491
a(S'love'
p3492
S'VBZ'
p3493
tp3494
a(S'wint'
p3495
S'NN'
p3496
tp3497
a(S'cloys'
p3498
S'JJ'
p3499
tp3500
a(S'room'
p3501
S'NN'
p3502
tp3503
a(S'window'
p3504
S'NN'
p3505
tp3506
atp3507
a(I2
(lp3508
(S'glove'
p3509
S'NNS'
p3510
tp3511
a(S'slop'
p3512
S'VB'
p3513
tp3514
atp3515
a(I1
(lp3516
(S'nay'
p3517
S'NNP'
p3518
tp3519
a(S'this'
p3520
S'NN'
p3521
tp3522
a(S'college'
p3523
S'NN'
p3524
tp3525
atp3526
a(I0
(lp3527
(S'love'
p3528
S'RB'
p3529
tp3530
a(S'blab'
p3531
S'NNP'
p3532
tp3533
atp3534
a(I1
(lp3535
(S'Putnam'
p3536
S'NNP'
p3537
tp3538
a(S'cross'
p3539
S'VBD'
p3540
tp3541
atp3542
a(I0
(lp3543
(S'big'
p3544
S'JJ'
p3545
tp3546
a(S'foal'
p3547
S'VB'
p3548
tp3549
atp3550
a(I0
(lp3551
(S'brain-boosters'
p3552
S'NNS'
p3553
tp3554
a(S'ar'
p3555
S'NNP'
p3556
tp3557
atp3558
a(I0
(lp3559
(S'pain'
p3560
S'NNP'
p3561
tp3562
atp3563
a(I1
(lp3564
(S'snow'
p3565
S'NNP'
p3566
tp3567
a(S'dram'
p3568
S'JJ'
p3569
tp3570
a(S'fin'
p3571
S'NN'
p3572
tp3573
a(S"'"
p3574
S"''"
p3575
tp3576
a(S'thanks g'
p3577
S'NNP'
p3578
tp3579
atp3580
a(I2
(lp3581
(S'Duncan'
p3582
S'NNP'
p3583
tp3584
a(g5
g206
tp3585
a(S'hack'
p3586
S'VBN'
p3587
tp3588
a(S'mother'
p3589
S'NN'
p3590
tp3591
a(S'conduct'
p3592
S'NN'
p3593
tp3594
a(S'ethic'
p3595
S'NNS'
p3596
tp3597
a(S'real'
p3598
S'RB'
p3599
tp3600
a(S'-eat-shit'
p3601
S'JJ'
p3602
tp3603
a(S'dog'
p3604
S'NN'
p3605
tp3606
a(S'talk'
p3607
S'VBZ'
p3608
tp3609
a(S'mask'
p3610
S'VBP'
p3611
tp3612
a(S'suck'
p3613
S'VBP'
p3614
tp3615
a(S'dick'
p3616
S'NN'
p3617
tp3618
a(S'send'
p3619
S'NN'
p3620
tp3621
a(S'fuck'
p3622
S'NN'
p3623
tp3624
a(S'wel'
p3625
S'RB'
p3626
tp3627
atp3628
a(I1
(lp3629
(S'da'
p3630
S'NNP'
p3631
tp3632
a(S'lusty'
p3633
g3631
tp3634
a(S'than h'
p3635
S'NNP'
p3636
tp3637
a(S'conga'
p3638
g3636
tp3639
a(S'hap'
p3640
S'NNP'
p3641
tp3642
a(S'dung'
p3643
g3641
tp3644
a(S'dais'
p3645
S'NNP'
p3646
tp3647
a(S'p hap'
p3648
g3646
tp3649
a(g865
S'CD'
p3650
tp3651
a(S'dem'
p3652
S'NNP'
p3653
tp3654
a(S'roi'
p3655
S'NNP'
p3656
tp3657
a(S'chi'
p3658
g3656
tp3659
a(S'nu'
p3660
S'NNP'
p3661
tp3662
a(S'co'
p3663
g3661
tp3664
a(g865
S'CD'
p3665
tp3666
a(S'ting'
p3667
S'NNP'
p3668
tp3669
a(S'mac'
p3670
S'NNP'
p3671
tp3672
a(S'du'
p3673
g3671
tp3674
a(S'hom'
p3675
S'NNP'
p3676
tp3677
a(S'Esau'
p3678
g3676
tp3679
a(S'cuing'
p3680
S'NNP'
p3681
tp3682
a(S'k hong'
p3683
g3681
tp3684
a(S'lam'
p3685
S'NNP'
p3686
tp3687
a(S'git'
p3688
g3686
tp3689
atp3690
a(I3
(lp3691
(S'fuck'
p3692
S'NNP'
p3693
tp3694
a(S'kore'
p3695
S'NNP'
p3696
tp3697
a(S'sentry'
p3698
S'NNP'
p3699
tp3700
a(S'suck'
p3701
S'VBP'
p3702
tp3703
atp3704
a(I0
(lp3705
(S'fin'
p3706
S'RB'
p3707
tp3708
a(S'mad'
p3709
S'VBD'
p3710
tp3711
a(S'hav'
p3712
S'VB'
p3713
tp3714
a(S'some'
p3715
S'DT'
p3716
tp3717
a(S'want'
p3718
S'VBP'
p3719
tp3720
atp3721
a(I0
(lp3722
(S'battle'
p3723
S'NN'
p3724
tp3725
a(S'tow'
p3726
S'NN'
p3727
tp3728
a(S'another'
p3729
S'DT'
p3730
tp3731
a(S'tut'
p3732
S'NN'
p3733
tp3734
atp3735
a(I1
(lp3736
(S'somebody'
p3737
S'NN'
p3738
tp3739
a(S'zing'
p3740
S'NNP'
p3741
tp3742
atp3743
a(I2
(lp3744
(S'put'
p3745
S'VB'
p3746
tp3747
a(S'hand'
p3748
S'NNS'
p3749
tp3750
a(S'pant'
p3751
S'NNP'
p3752
tp3753
a(S'bet'
p3754
S'NNP'
p3755
tp3756
a(S'wily'
p3757
S'NNP'
p3758
tp3759
a(S'feel'
p3760
S'NNP'
p3761
tp3762
a(S'nut'
p3763
S'NNP'
p3764
tp3765
atp3766
a(I0
(lp3767
(S'sex'
p3768
S'NNP'
p3769
tp3770
atp3771
a(I0
(lp3772
(S'master b'
p3773
S'NN'
p3774
tp3775
a(g1708
S'NNP'
p3776
tp3777
a(S'think'
p3778
S'NNP'
p3779
tp3780
a(S'dirty-minded'
p3781
S'JJ'
p3782
tp3783
a(S'>'
p3784
S'NN'
p3785
tp3786
atp3787
a(I0
(lp3788
(S'cuff-link'
p3789
S'NNP'
p3790
tp3791
a(S'preppy'
p3792
S'JJ'
p3793
tp3794
a(S'preppy'
p3795
S'NN'
p3796
tp3797
atp3798
a(I0
(lp3799
tp3800
a(I2
(lp3801
(S'cove'
p3802
S'VBN'
p3803
tp3804
a(S'snow'
p3805
S'NN'
p3806
tp3807
atp3808
a(I0
(lp3809
(S'crazy'
p3810
S'NNP'
p3811
tp3812
a(S'wint'
p3813
S'NNP'
p3814
tp3815
a(S'crazy'
p3816
S'JJ'
p3817
tp3818
a(S'mor'
p3819
S'RBR'
p3820
tp3821
a(S'daydream'
p3822
S'VBG'
p3823
tp3824
atp3825
a(I0
(lp3826
(S'mid-terms'
p3827
S'NNS'
p3828
tp3829
a(S'part'
p3830
S'NNS'
p3831
tp3832
a(S'us'
p3833
S'JJ'
p3834
tp3835
a(S'routing'
p3836
S'NN'
p3837
tp3838
atp3839
a(I1
(lp3840
(S'sick'
p3841
S'NNP'
p3842
tp3843
a(S'daylight'
p3844
S'NNP'
p3845
tp3846
a(S'save'
p3847
S'NNP'
p3848
tp3849
a(S'mor'
p3850
S'NNP'
p3851
tp3852
a(S'hwy'
p3853
S'NNP'
p3854
tp3855
a(S'sick'
p3856
S'NNP'
p3857
tp3858
atp3859
a(I0
(lp3860
tp3861
a(I0
(lp3862
(S'omg'
p3863
S'NNP'
p3864
tp3865
a(S'miss'
p3866
S'VBD'
p3867
tp3868
a(S'tail g'
p3869
S'NN'
p3870
tp3871
atp3872
a(I0
(lp3873
(S'some'
p3874
S'DT'
p3875
tp3876
a(S'petty'
p3877
S'NN'
p3878
tp3879
a(S'self-indulgence'
p3880
S'NN'
p3881
tp3882
atp3883
a(I0
(lp3884
(S'tank'
p3885
S'NNP'
p3886
tp3887
atp3888
a(I0
(lp3889
(S'common'
p3890
S'JJ'
p3891
tp3892
atp3893
a(I3
(lp3894
(g483
S'VBP'
p3895
tp3896
a(S'hug'
p3897
S'JJ'
p3898
tp3899
a(S'snack'
p3900
S'NN'
p3901
tp3902
a(S'salad'
p3903
g3901
tp3904
a(S'cod-fish'
p3905
S'JJ'
p3906
tp3907
a(S'sandwich'
p3908
S'NN'
p3909
tp3910
a(S'milk'
p3911
S'NN'
p3912
tp3913
a(S'1202am'
p3914
S'CD'
p3915
tp3916
a(g2557
S'CD'
p3917
tp3918
a(S"'m"
p3919
S'VBP'
p3920
tp3921
a(S'gon'
p3922
S'JJ'
p3923
tp3924
a(S'na'
p3925
S'NN'
p3926
tp3927
a(S'pul'
p3928
S'NN'
p3929
tp3930
a(S'all-nighter'
p3931
S'NNP'
p3932
tp3933
a(S'span'
p3934
S'NNP'
p3935
tp3936
a(S'mid-term'
p3937
S'JJ'
p3938
tp3939
a(S'tow'
p3940
S'NNP'
p3941
tp3942
a(S'jack'
p3943
g3941
tp3944
a(S'cousin'
p3945
S'NN'
p3946
tp3947
a(S"'d"
p3948
S'MD'
p3949
tp3950
a(S'prob'
p3951
S'RB'
p3952
tp3953
a(S'bet'
p3954
S'RBR'
p3955
tp3956
a(S'some'
p3957
S'DT'
p3958
tp3959
a(S'sleep'
p3960
S'NN'
p3961
tp3962
a(S'tho'
p3963
S'NNP'
p3964
tp3965
a(S"'d"
p3966
S'MD'
p3967
tp3968
a(S'prob'
p3969
S'RB'
p3970
tp3971
a(S'bet'
p3972
S'RBR'
p3973
tp3974
a(S'some-th'
p3975
S'NN'
p3976
tp3977
a(S'head'
p3978
S'NNP'
p3979
tp3980
a(S'post-halloween'
p3981
S'NNP'
p3982
tp3983
a(S'syndrome'
p3984
g3982
tp3985
atp3986
a(I1
(lp3987
(S'amaze'
p3988
S'JJ'
p3989
tp3990
a(S'knowledge'
p3991
S'NN'
p3992
tp3993
a(S'inform'
p3994
S'NN'
p3995
tp3996
a(S'opportunity'
p3997
S'NNS'
p3998
tp3999
atp4000
a(I2
(lp4001
(S'hello'
p4002
S'NNP'
p4003
tp4004
a(S'may'
p4005
S'NNP'
p4006
tp4007
a(S'sleep'
p4008
S'NN'
p4009
tp4010
a(S'import'
p4011
S'NNP'
p4012
tp4013
a(S'nee'
p4014
S'VBP'
p4015
tp4016
a(S'eat'
p4017
S'VB'
p4018
tp4019
a(S'drink'
p4020
S'NN'
p4021
tp4022
a(S'show'
p4023
S'NN'
p4024
tp4025
a(S'brush'
p4026
S'JJ'
p4027
tp4028
a(S'tee'
p4029
S'NN'
p4030
tp4031
a(S'poop'
p4032
S'NN'
p4033
tp4034
a(S'pee'
p4035
S'NN'
p4036
tp4037
a(S'work'
p4038
S'NN'
p4039
tp4040
a(S'pols'
p4041
S'NNS'
p4042
tp4043
atp4044
a(I2
(lp4045
(S'slept'
p4046
S'NNP'
p4047
tp4048
a(S'lunch'
p4049
S'NN'
p4050
tp4051
a(S'first'
p4052
S'NNP'
p4053
tp4054
a(S'resort'
p4055
S'VB'
p4056
tp4057
a(S'inst'
p4058
S'VB'
p4059
tp4060
a(S'noodle'
p4061
S'JJ'
p4062
tp4063
a(S'miss'
p4064
S'NNP'
p4065
tp4066
a(S'sin-gap'
p4067
S'NNP'
p4068
tp4069
atp4070
a(I0
(lp4071
(S'many'
p4072
S'JJ'
p4073
tp4074
a(S'interest'
p4075
S'JJ'
p4076
tp4077
a(S'thing'
p4078
S'NNS'
p4079
tp4080
a(S'study'
p4081
S'VB'
p4082
tp4083
a(S'wint'
p4084
S'NNP'
p4085
tp4086
a(S'break'
p4087
S'NNP'
p4088
tp4089
a(S'may'
p4090
S'MD'
p4091
tp4092
a(S'wel'
p4093
S'RB'
p4094
tp4095
a(S'wint'
p4096
S'NN'
p4097
tp4098
a(S'break'
p4099
S'NNP'
p4100
tp4101
atp4102
a(I3
(lp4103
(S'snow'
p4104
S'VBZ'
p4105
tp4106
a(S'octopi'
p4107
S'NNP'
p4108
tp4109
atp4110
a(I3
(lp4111
(S'Dachau'
p4112
S'NNP'
p4113
tp4114
a(S'vow'
p4115
S'NNP'
p4116
tp4117
a(S'new'
p4118
S'JJ'
p4119
tp4120
a(S'Vietnamese'
p4121
S'JJ'
p4122
tp4123
a(S'rest a'
p4124
S'NN'
p4125
tp4126
a(S'op'
p4127
S'VBN'
p4128
tp4129
a(S'street'
p4130
S'NNP'
p4131
tp4132
a(S'transl'
p4133
S'NN'
p4134
tp4135
a(S'five'
p4136
S'CD'
p4137
tp4138
a(S'min'
p4139
S'NN'
p4140
tp4141
a(S'away'
p4142
S'RB'
p4143
tp4144
a(S'dorm'
p4145
S'NN'
p4146
tp4147
a(S'interest'
p4148
S'JJ'
p4149
tp4150
a(S'nam'
p4151
S'VBN'
p4152
tp4153
a(S'Saigon'
p4154
S'NNP'
p4155
tp4156
a(S'awesome'
p4157
S'NN'
p4158
tp4159
atp4160
a(I0
(lp4161
(S'pier-do'
p4162
S'NNP'
p4163
tp4164
a(S'mi'
p4165
S'NN'
p4166
tp4167
a(S'meant'
p4168
S'NN'
p4169
tp4170
atp4171
a(I0
(lp4172
(Vdoubt
p4173
S'NN'
p4174
tp4175
a(Vperson
p4176
S'JJ'
p4177
tp4178
a(Vfreedom
p4179
S'NN'
p4180
tp4181
a(Vself-motivation
p4182
g4180
tp4183
a(Vindividual
p4184
S'JJ'
p4185
tp4186
a(Vexcel
p4187
S'NNP'
p4188
tp4189
a(Vend
p4190
S'NN'
p4191
tp4192
a(Vit\u2019s
p4193
S'NNP'
p4194
tp4195
a(Vself-benefit
p4196
S'NNP'
p4197
tp4198
a(Vrely
p4199
g4197
tp4200
a(Vhonesty
p4201
S'NNP'
p4202
tp4203
a(Vservo
p4204
g4202
tp4205
a(Vlead
p4206
S'NNP'
p4207
tp4208
a(Vsens
p4209
g4207
tp4210
a(Vcommune
p4211
S'NNP'
p4212
tp4213
a(Vpass
p4214
g4212
tp4215
a(Vcent
p4216
S'NNP'
p4217
tp4218
a(Voath
p4219
g4217
tp4220
a(Vrath
p4221
S'RB'
p4222
tp4223
a(Vone\u2019s
p4224
S'NNS'
p4225
tp4226
a(Vself
p4227
S'NNP'
p4228
tp4229
a(Vpursuit
p4230
S'NN'
p4231
tp4232
a(Vmean
p4233
S'JJ'
p4234
tp4235
a(Vvalue
p4236
S'NNS'
p4237
tp4238
a(Vrath
p4239
S'RB'
p4240
tp4241
a(Vsuper f
p4242
S'JJ'
p4243
tp4244
a(Vmat
p4245
S'JJ'
p4246
tp4247
a(Vgoal
p4248
S'NNS'
p4249
tp4250
atp4251
a(I2
(lp4252
(S'everyday'
p4253
S'NNP'
p4254
tp4255
a(S'economy'
p4256
S'NNS'
p4257
tp4258
a(S'class'
p4259
S'NNS'
p4260
tp4261
a(S'ogre'
p4262
S'JJ'
p4263
tp4264
atp4265
a(I0
(lp4266
(g1708
S'NN'
p4267
tp4268
a(g1708
S'``'
p4269
tp4270
a(S'armhole'
p4271
S'JJ'
p4272
tp4273
atp4274
a(I2
(lp4275
(S'miss'
p4276
S'VBP'
p4277
tp4278
a(S'100'
p4279
S'CD'
p4280
tp4281
a(g1040
S'NN'
p4282
tp4283
a(S'shot'
p4284
S'NNS'
p4285
tp4286
a(S'teak'
p4287
S'VB'
p4288
tp4289
atp4290
a(I1
(lp4291
(S'ca'
p4292
S'NNP'
p4293
tp4294
a(S'live'
p4295
S'VB'
p4296
tp4297
a(S'blackberry'
p4298
S'NN'
p4299
tp4300
atp4301
a(I1
(lp4302
(S'nail'
p4303
S'VB'
p4304
tp4305
a(S'mid-term'
p4306
S'JJ'
p4307
tp4308
a(S'keep'
p4309
S'NN'
p4310
tp4311
a(S'ham'
p4312
S'VBG'
p4313
tp4314
atp4315
a(I1
(lp4316
(S'mgr'
p4317
S'NNP'
p4318
tp4319
a(S'goth'
p4320
S'NNP'
p4321
tp4322
a(S'choke'
p4323
S'NNP'
p4324
tp4325
a(S'tong'
p4326
S'NNP'
p4327
tp4328
atp4329
a(I0
(lp4330
(S'octopi'
p4331
S'NNP'
p4332
tp4333
a(S'mon'
p4334
g4332
tp4335
a(S'mem'
p4336
S'NN'
p4337
tp4338
a(S'every'
p4339
S'DT'
p4340
tp4341
a(S'paty'
p4342
S'NN'
p4343
tp4344
a(S'foamy'
p4345
g4343
tp4346
a(S'member'
p4347
S'NN'
p4348
tp4349
a(S'friend'
p4350
g4348
tp4351
a(S'lost'
p4352
S'VBN'
p4353
tp4354
a(S'battle'
p4355
S'NN'
p4356
tp4357
a(S'hon'
p4358
S'NN'
p4359
tp4360
a(S'thous'
p4361
S'DT'
p4362
tp4363
a(S'continue'
p4364
S'VBP'
p4365
tp4366
a(S'conk'
p4367
S'VB'
p4368
tp4369
a(S'put'
p4370
S'VBD'
p4371
tp4372
a(S'1'
p4373
S'CD'
p4374
tp4375
a(S'hour'
p4376
S'NN'
p4377
tp4378
a(S'love'
p4379
S'VBP'
p4380
tp4381
a(S'someone'
p4382
S'NN'
p4383
tp4384
atp4385
a(I6
(lp4386
(S'aint'
p4387
S'NNP'
p4388
tp4389
a(S'proud'
p4390
S'VBD'
p4391
tp4392
a(S'ac'
p4393
S'NNP'
p4394
tp4395
atp4396
a(I0
(lp4397
(S'mountain'
p4398
S'NNP'
p4399
tp4400
a(S'f ml'
p4401
S'NNP'
p4402
tp4403
atp4404
a(I0
(lp4405
(S'see'
p4406
S'NNS'
p4407
tp4408
a(S'silverfish'
p4409
S'NN'
p4410
tp4411
a(S'cloud'
p4412
S'NN'
p4413
tp4414
a(S'hay'
p4415
S'NN'
p4416
tp4417
a(S'mal'
p4418
S'JJ'
p4419
tp4420
a(S'que'
p4421
S'NN'
p4422
tp4423
a(S'pour'
p4424
S'NN'
p4425
tp4426
a(S'bien'
p4427
S'NN'
p4428
tp4429
a(S'veg'
p4430
S'NN'
p4431
tp4432
atp4433
a(I1
(lp4434
(S'key'
p4435
S'JJ'
p4436
tp4437
a(S'success'
p4438
S'NN'
p4439
tp4440
a(S'keep'
p4441
S'VB'
p4442
tp4443
a(S'peach'
p4444
S'NN'
p4445
tp4446
a(S'mind'
p4447
S'NN'
p4448
tp4449
a(S'undo'
p4450
S'IN'
p4451
tp4452
a(S'circumspect'
p4453
S'NN'
p4454
tp4455
a(S'ransom'
p4456
S'NN'
p4457
tp4458
a(S'dud'
p4459
S'NN'
p4460
tp4461
a(S'mistake'
p4462
S'VBG'
p4463
tp4464
a(S'phon'
p4465
S'NN'
p4466
tp4467
a(S'numb'
p4468
S'NN'
p4469
tp4470
a(S'sign'
p4471
S'NN'
p4472
tp4473
atp4474
a(I1
(lp4475
(S'kid'
p4476
S'NNS'
p4477
tp4478
a(S'awake'
p4479
S'VB'
p4480
tp4481
a(S'screw'
p4482
S'VB'
p4483
tp4484
a(S'feel'
p4485
S'VB'
p4486
tp4487
a(S'happy'
p4488
S'JJ'
p4489
tp4490
a(S'because'
p4491
S'IN'
p4492
tp4493
a(S'right'
p4494
S'NN'
p4495
tp4496
a(S'awake'
p4497
S'NN'
p4498
tp4499
a(S'antifreeze'
p4500
S'NNP'
p4501
tp4502
atp4503
a(I0
(lp4504
(S'doe'
p4505
S'VBZ'
p4506
tp4507
a(S'think'
p4508
S'VB'
p4509
tp4510
atp4511
a(I0
(lp4512
(S'stint'
p4513
S'NN'
p4514
tp4515
a(S'norm'
p4516
S'NN'
p4517
tp4518
atp4519
a(I2
(lp4520
(S'love'
p4521
S'IN'
p4522
tp4523
a(S'study'
p4524
S'VBG'
p4525
tp4526
a(S'addict'
p4527
S'VBN'
p4528
tp4529
a(S'homework'
p4530
S'NN'
p4531
tp4532
a(S'give'
p4533
S'JJ'
p4534
tp4535
a(S'excuser'
p4536
S'NNS'
p4537
tp4538
a(S'screw'
p4539
S'NN'
p4540
tp4541
a(S'ca'
p4542
S'NNP'
p4543
tp4544
a(S'stop'
p4545
S'VB'
p4546
tp4547
a(S'academy'
p4548
S'JJ'
p4549
tp4550
a(S'spree'
p4551
S'NN'
p4552
tp4553
a(S'mug'
p4554
S'NNP'
p4555
tp4556
a(S'mug'
p4557
S'NNP'
p4558
tp4559
a(S'mug'
p4560
S'NNP'
p4561
tp4562
atp4563
a(I0
(lp4564
(S'defrost'
p4565
S'NN'
p4566
tp4567
atp4568
a(I1
(lp4569
(S'antifreeze'
p4570
S'NNP'
p4571
tp4572
atp4573
a(I1
(lp4574
(g2085
S'NN'
p4575
tp4576
a(S'fb-ing'
p4577
S'JJ'
p4578
tp4579
a(S'right'
p4580
S'NN'
p4581
tp4582
a(S'get'
p4583
S'NNP'
p4584
tp4585
a(S'lift'
p4586
S'NNP'
p4587
tp4588
atp4589
a(I1
(lp4590
(S'some-th'
p4591
S'NN'
p4592
tp4593
a(S'enjoy'
p4594
S'NN'
p4595
tp4596
a(S'unimportant'
p4597
S'JJ'
p4598
tp4599
a(S'stuff'
p4600
S'NNS'
p4601
tp4602
a(S'try'
p4603
S'NN'
p4604
tp4605
a(S'mask'
p4606
S'VB'
p4607
tp4608
a(S'sens'
p4609
S'NN'
p4610
tp4611
a(S'some-th'
p4612
S'NN'
p4613
tp4614
a(S'tot'
p4615
S'RB'
p4616
tp4617
a(S'random=d'
p4618
S'JJ'
p4619
tp4620
atp4621
a(I0
(lp4622
(S'10'
p4623
S'CD'
p4624
tp4625
a(S'12'
p4626
S'CD'
p4627
tp4628
a(S'15'
p4629
S'CD'
p4630
tp4631
a(S'18'
p4632
S'CD'
p4633
tp4634
a(S'23'
p4635
S'CD'
p4636
tp4637
a(S'25'
p4638
S'CD'
p4639
tp4640
a(S'28'
p4641
S'CD'
p4642
tp4643
a(S'32'
p4644
S'CD'
p4645
tp4646
a(S'common'
p4647
S'JJ'
p4648
tp4649
a(S'feat'
p4650
S'NN'
p4651
tp4652
a(S'thews'
p4653
S'DT'
p4654
tp4655
a(S'two'
p4656
S'CD'
p4657
tp4658
a(S'set'
p4659
S'NNS'
p4660
tp4661
a(S'number'
p4662
S'NNS'
p4663
tp4664
atp4665
a(I0
(lp4666
(S'vain'
p4667
S'NN'
p4668
tp4669
a(S'profile'
p4670
S'NN'
p4671
tp4672
a(S'pix'
p4673
S'NN'
p4674
tp4675
atp4676
a(I0
(lp4677
(S'vain'
p4678
S'NN'
p4679
tp4680
a(S'dpt'
p4681
S'NNP'
p4682
tp4683
atp4684
a(I0
(lp4685
(S'102'
p4686
S'CD'
p4687
tp4688
atp4689
a(I0
(lp4690
(S'let'
p4691
S'NNP'
p4692
tp4693
a(S'go'
p4694
S'NN'
p4695
tp4696
a(S'cobra'
p4697
S'NNP'
p4698
tp4699
atp4700
a(I0
(lp4701
(S'sonority'
p4702
S'NNP'
p4703
tp4704
atp4705
a(I0
(lp4706
(S'reclaim'
p4707
S'VBG'
p4708
tp4709
a(S'title'
p4710
S'NN'
p4711
tp4712
a(S'true'
p4713
S'JJ'
p4714
tp4715
a(S'tank'
p4716
S'NN'
p4717
tp4718
atp4719
a(I1
(lp4720
(S'see'
p4721
S'VBP'
p4722
tp4723
a(S'snowball'
p4724
S'VBG'
p4725
tp4726
atp4727
a(I0
(lp4728
(S'rog'
p4729
S'NNP'
p4730
tp4731
a(S'rog'
p4732
S'NNP'
p4733
tp4734
a(g483
g206
tp4735
a(S'rog'
p4736
S'NNP'
p4737
tp4738
a(S'tut'
p4739
S'NNP'
p4740
tp4741
a(S'rog'
p4742
S'NNP'
p4743
tp4744
a(g1708
S'NNP'
p4745
tp4746
a(S'/3'
p4747
S'NNP'
p4748
tp4749
atp4750
a(I1
(lp4751
(Vest
p4752
S'NNP'
p4753
tp4754
a(Ve
p4755
S'NNS'
p4756
tp4757
a(Vun
p4758
S'VBP'
p4759
tp4760
a(Vcancan
p4761
S'JJ'
p4762
tp4763
a(Vde
p4764
S'NN'
p4765
tp4766
atp4767
a(I2
(lp4768
(S'get'
p4769
S'VBG'
p4770
tp4771
a(S'cold'
p4772
S'JJ'
p4773
tp4774
a(S'**'
p4775
S'-NONE-'
p4776
tp4777
atp4778
a(I0
(lp4779
(S'ebb'
p4780
S'NNP'
p4781
tp4782
a(S'ad'
p4783
S'NN'
p4784
tp4785
a(S'pin'
p4786
S'NNP'
p4787
tp4788
a(S'22dd5144'
p4789
S'CD'
p4790
tp4791
atp4792
a(I1
(lp4793
(S'think'
p4794
S'NNS'
p4795
tp4796
a(S'ebb'
p4797
S'VBP'
p4798
tp4799
a(S'torch'
p4800
S'NN'
p4801
tp4802
a(S'soot'
p4803
S'NNP'
p4804
tp4805
a(S'lousy'
p4806
S'NN'
p4807
tp4808
atp4809
a(I2
(lp4810
(S'blackberry'
p4811
S'NNP'
p4812
tp4813
a(S'torch'
p4814
S'NNP'
p4815
tp4816
a(S'sweet'
p4817
S'NN'
p4818
tp4819
a(S'd'
p4820
S'JJ'
p4821
tp4822
a(S'^^'
p4823
S'NN'
p4824
tp4825
a(S'cal'
p4826
S'JJ'
p4827
tp4828
a(S'413-346-8100'
p4829
S'CD'
p4830
tp4831
atp4832
a(I0
(lp4833
(S'help'
p4834
S'VB'
p4835
tp4836
a(S'decipher'
p4837
S'JJR'
p4838
tp4839
a(S'lyric'
p4840
S'NNS'
p4841
tp4842
a(S'right'
p4843
S'NNP'
p4844
tp4845
a(S'move'
p4846
S'NNP'
p4847
tp4848
a(S'republic'
p4849
S'NNP'
p4850
tp4851
a(S'**'
p4852
S'-NONE-'
p4853
tp4854
atp4855
a(I9
(lp4856
(S'saw'
p4857
S'VBD'
p4858
tp4859
a(S'deer'
p4860
S'NN'
p4861
tp4862
a(S'park'
p4863
S'NN'
p4864
tp4865
a(S'lot'
p4866
S'NN'
p4867
tp4868
a(S'met'
p4869
S'NN'
p4870
tp4871
a(S'awesome'
p4872
S'NN'
p4873
tp4874
a(S'jays'
p4875
S'NNP'
p4876
tp4877
a(S'feel'
p4878
S'NNS'
p4879
tp4880
a(S'foal'
p4881
S'VBG'
p4882
tp4883
a(S'love'
p4884
S'NN'
p4885
tp4886
a(S'place'
p4887
S'NN'
p4888
tp4889
a(S'first'
p4890
S'JJ'
p4891
tp4892
a(S'sight'
p4893
S'NN'
p4894
tp4895
atp4896
a(I0
(lp4897
(S'think'
p4898
S'NNS'
p4899
tp4900
a(S'monopoly'
p4901
S'VB'
p4902
tp4903
a(S'right'
p4904
S'NNS'
p4905
tp4906
a(S'count'
p4907
S'VBG'
p4908
tp4909
a(S'rev'
p4910
S'JJ'
p4911
tp4912
a(S'ar'
p4913
S'NN'
p4914
tp4915
a(S'because'
p4916
S'IN'
p4917
tp4918
a(S'eh'
p4919
S'NNP'
p4920
tp4921
a(S'talk'
p4922
S'VBG'
p4923
tp4924
a(S'pump'
p4925
S'VBG'
p4926
tp4927
a(S'much'
p4928
S'RB'
p4929
tp4930
a(S'hard'
p4931
S'RB'
p4932
tp4933
a(S'control'
p4934
S'NN'
p4935
tp4936
a(S'wee'
p4937
S'NNP'
p4938
tp4939
a(S'wee'
p4940
S'NNP'
p4941
tp4942
a(S'wee'
p4943
S'NNP'
p4944
tp4945
atp4946
a(I0
(lp4947
(S'canyon'
p4948
S'NN'
p4949
tp4950
a(S'fly'
p4951
S'VBG'
p4952
tp4953
a(S'sag'
p4954
S'NNP'
p4955
tp4956
a(S'h cm'
p4957
S'NNP'
p4958
tp4959
a(S'nee'
p4960
S'NN'
p4961
tp4962
a(S'help'
p4963
S'NN'
p4964
tp4965
a(S'tut'
p4966
S'NN'
p4967
tp4968
atp4969
a(I0
(lp4970
(S'almost'
p4971
S'RB'
p4972
tp4973
a(S'faint'
p4974
S'VBN'
p4975
tp4976
a(S'see'
p4977
S'VBG'
p4978
tp4979
a(S'new'
p4980
S'JJ'
p4981
tp4982
a(S'it-in'
p4983
S'NN'
p4984
tp4985
a(S'ar'
p4986
S'VB'
p4987
tp4988
a(S'alb-any'
p4989
S'NNP'
p4990
tp4991
a(S'airport'
p4992
S'NNP'
p4993
tp4994
a(S'1030pm'
p4995
S'CD'
p4996
tp4997
atp4998
a(I0
(lp4999
(S'misanthropy'
p5000
S'NN'
p5001
tp5002
a(S'hat'
p5003
S'VB'
p5004
tp5005
atp5006
a(I0
(lp5007
(S'confide'
p5008
S'NN'
p5009
tp5010
a(S'also'
p5011
S'RB'
p5012
tp5013
a(S'multiplier'
p5014
S'NNS'
p5015
tp5016
atp5017
a(I3
(lp5018
(S'canard'
p5019
S'NNP'
p5020
tp5021
a(S'project'
p5022
S'NN'
p5023
tp5024
a(S'comp'
p5025
S'VB'
p5026
tp5027
a(S'effect'
p5028
S'NNS'
p5029
tp5030
a(S'porn'
p5031
S'NN'
p5032
tp5033
a(S'bet w'
p5034
g5032
tp5035
a(S'non-watchers'
p5036
S'NNS'
p5037
tp5038
a(S'fail'
p5039
S'VBN'
p5040
tp5041
a(S'first'
p5042
S'JJ'
p5043
tp5044
a(S'step'
p5045
S'NN'
p5046
tp5047
a(S'find'
p5048
S'VB'
p5049
tp5050
a(S'canyon'
p5051
S'NNP'
p5052
tp5053
a(S'hav'
p5054
S'NNP'
p5055
tp5056
a(S'watch'
p5057
g5055
tp5058
a(S'porn'
p5059
S'NNP'
p5060
tp5061
a(S'ie'
p5062
g5060
tp5063
a(S'men'
p5064
S'NNS'
p5065
tp5066
a(S'porn'
p5067
S'NN'
p5068
tp5069
atp5070
a(I1
(lp5071
(S'know'
p5072
S'VBP'
p5073
tp5074
a(S'com'
p5075
S'VB'
p5076
tp5077
atp5078
a(I2
(lp5079
(S'howl'
p5080
S'NNP'
p5081
tp5082
a(S'Buena'
p5083
S'VBZ'
p5084
tp5085
a(S'notch'
p5086
S'NNS'
p5087
tp5088
atp5089
a(I0
(lp5090
(S'sag'
p5091
S'NN'
p5092
tp5093
a(S'309'
p5094
S'CD'
p5095
tp5096
atp5097
a(I0
(lp5098
(S'dorm'
p5099
S'NN'
p5100
tp5101
a(S'sag'
p5102
S'NNP'
p5103
tp5104
a(S'entry'
p5105
S'NN'
p5106
tp5107
atp5108
a(I0
(lp5109
(S'div'
p5110
S'NN'
p5111
tp5112
a(g483
g206
tp5113
a(S'nerdy'
p5114
S'NN'
p5115
tp5116
a(S'va'
p5117
S'NN'
p5118
tp5119
a(S'hong'
p5120
S'NNP'
p5121
tp5122
a(S'gen y'
p5123
S'NNP'
p5124
tp5125
a(S'min h'
p5126
S'NNP'
p5127
tp5128
a(S'hong'
p5129
S'NNP'
p5130
tp5131
a(S'9x'
p5132
S'CD'
p5133
tp5134
a(S'chum'
p5135
S'NN'
p5136
tp5137
a(S'cc'
p5138
S'NN'
p5139
tp5140
a(S'ban'
p5141
S'NN'
p5142
tp5143
atp5144
a(I0
(lp5145
(S'receive'
p5146
S'VBD'
p5147
tp5148
a(S'postcard'
p5149
S'NN'
p5150
tp5151
a(S'from-my'
p5152
S'NN'
p5153
tp5154
a(S'lead'
p5155
S'NNP'
p5156
tp5157
a(S'go'
p5158
S'NN'
p5159
tp5160
a(S'Kelsey'
p5161
S'NNP'
p5162
tp5163
atp5164
a(I0
(lp5165
(S'miss'
p5166
S'NNS'
p5167
tp5168
a(S'friend'
p5169
S'NNS'
p5170
tp5171
a(S'sin-gap'
p5172
S'NNP'
p5173
tp5174
atp5175
a(I0
(lp5176
(g4373
S'LS'
p5177
tp5178
a(S'ton'
p5179
S'NN'
p5180
tp5181
a(S'dollar'
p5182
S'NNS'
p5183
tp5184
a(S'thous'
p5185
S'DT'
p5186
tp5187
a(S'sam'
p5188
S'JJ'
p5189
tp5190
a(S'class'
p5191
S'NNS'
p5192
tp5193
atp5194
a(I0
(lp5195
(S'eh'
p5196
S'NNP'
p5197
tp5198
a(S'fros l'
p5199
g5197
tp5200
a(S'ie'
p5201
S'NN'
p5202
tp5203
a(S'income'
p5204
S'NNP'
p5205
tp5206
a(S'freshman'
p5207
S'NNP'
p5208
tp5209
a(S'pleas'
p5210
g5208
tp5211
a(S'post'
p5212
S'NN'
p5213
tp5214
a(S'schedule'
p5215
g5213
tp5216
a(S'tag'
p5217
S'NNP'
p5218
tp5219
a(S'ppl'
p5220
g5218
tp5221
a(S'secrecy'
p5222
S'NN'
p5223
tp5224
a(S'tol'
p5225
S'VBN'
p5226
tp5227
a(S'els'
p5228
S'RB'
p5229
tp5230
a(S'assign'
p5231
S'VBN'
p5232
tp5233
a(S'sam'
p5234
S'JJ'
p5235
tp5236
a(S'black'
p5237
S'NN'
p5238
tp5239
a(S'list'
p5240
S'NN'
p5241
tp5242
a(S'kore'
p5243
S'NNP'
p5244
tp5245
atp5246
a(I1
(lp5247
(S'respond'
p5248
S'VB'
p5249
tp5250
a(S'email/message'
p5251
S'NN'
p5252
tp5253
a(S'sent'
p5254
S'NN'
p5255
tp5256
a(S'ym'
p5257
S'NNP'
p5258
tp5259
a(S'hot-mail'
p5260
S'NNP'
p5261
tp5262
a(S'account'
p5263
S'NNS'
p5264
tp5265
a(g483
g206
tp5266
a(S'ie'
p5267
S'NN'
p5268
tp5269
a(S'Duncan'
p5270
S'NNP'
p5271
tp5272
a(g5
g5271
tp5273
a(g2862
S'CC'
p5274
tp5275
a(S'duncan_levu'
p5276
S'NNP'
p5277
tp5278
a(g5
S'NNP'
p5279
tp5280
a(S'hotmailcom'
p5281
g5279
tp5282
a(S'hack'
p5283
S'VBN'
p5284
tp5285
a(S'contact'
p5286
S'VBG'
p5287
tp5288
a(S'thous'
p5289
S'DT'
p5290
tp5291
a(S'email'
p5292
S'NNS'
p5293
tp5294
a(S'try'
p5295
S'VB'
p5296
tp5297
a(S'borrow'
p5298
g5296
tp5299
a(S'acct'
p5300
S'NN'
p5301
tp5302
a(S'us'
p5303
S'VBG'
p5304
tp5305
a(S'nam'
p5306
S'NN'
p5307
tp5308
a(S'pleas'
p5309
S'NNP'
p5310
tp5311
a(S'nevi'
p5312
S'RB'
p5313
tp5314
a(S'shear'
p5315
S'NN'
p5316
tp5317
a(S'password'
p5318
S'VBD'
p5319
tp5320
a(S'anybody'
p5321
S'NN'
p5322
tp5323
a(S'mat'
p5324
S'NN'
p5325
tp5326
a(S'cloys'
p5327
S'JJ'
p5328
tp5329
atp5330
a(I0
(lp5331
(S'respond'
p5332
S'VB'
p5333
tp5334
a(S'email/message'
p5335
S'NN'
p5336
tp5337
a(S'sent'
p5338
S'NN'
p5339
tp5340
a(S'ym'
p5341
S'NNP'
p5342
tp5343
a(S'hot-mail'
p5344
S'NNP'
p5345
tp5346
a(S'account'
p5347
S'NNS'
p5348
tp5349
a(S'son'
p5350
S'NNP'
p5351
tp5352
a(S'b****'
p5353
S'JJ'
p5354
tp5355
a(S'st h'
p5356
S'NN'
p5357
tp5358
atp5359
a(I0
(lp5360
(S'hot-mail'
p5361
S'NN'
p5362
tp5363
a(S'account'
p5364
S'NNS'
p5365
tp5366
a(S'com-prom'
p5367
S'NNP'
p5368
tp5369
a(S'pleas'
p5370
S'NNP'
p5371
tp5372
a(S'contact'
p5373
S'VB'
p5374
tp5375
a(S'Keith'
p5376
S'DT'
p5377
tp5378
a(S'gm-ail'
p5379
S'NN'
p5380
tp5381
a(S'account'
p5382
S'NN'
p5383
tp5384
atp5385
a(I0
(lp5386
(S'want'
p5387
S'NNS'
p5388
tp5389
a(S'team'
p5390
S'NN'
p5391
tp5392
atp5393
a(I0
(lp5394
(S'shot'
p5395
S'VBN'
p5396
tp5397
a(S'4'
p5398
S'CD'
p5399
tp5400
a(S'time'
p5401
S'NNS'
p5402
tp5403
a(S'p'
p5404
S'NN'
p5405
tp5406
a(g483
g206
tp5407
a(S'vaccine'
p5408
S'NNP'
p5409
tp5410
a(S'julep'
p5411
S'NNP'
p5412
tp5413
a(S'vaccine'
p5414
S'NN'
p5415
tp5416
a(S'felt'
p5417
S'VBD'
p5418
tp5419
a(S'drug'
p5420
S'VBN'
p5421
tp5422
atp5423
a(I3
(lp5424
(S'feel'
p5425
S'NNS'
p5426
tp5427
a(S'soot'
p5428
S'VBP'
p5429
tp5430
a(S'happy'
p5431
S'JJ'
p5432
tp5433
a(S'see'
p5434
S'VB'
p5435
tp5436
a(S'soon'
p5437
S'RB'
p5438
tp5439
atp5440
a(I0
(lp5441
(S'guilt'
p5442
S'NNP'
p5443
tp5444
a(S'err'
p5445
S'NNP'
p5446
tp5447
atp5448
a(I0
(lp5449
(S'na'
p5450
S'NNS'
p5451
tp5452
a(S'trillion-air'
p5453
S'NN'
p5454
tp5455
a(S'freak'
p5456
S'VBG'
p5457
tp5458
a(S'bad'
p5459
S'JJ'
p5460
tp5461
atp5462
a(I2
(lp5463
(S'martinet'
p5464
S'NN'
p5465
tp5466
a(S'jeremiad'
p5467
S'VBD'
p5468
tp5469
a(S'stent'
p5470
S'JJ'
p5471
tp5472
a(S're-barb'
p5473
S'JJ'
p5474
tp5475
a(g1708
S'NN'
p5476
tp5477
a(S'project'
p5478
S'NN'
p5479
tp5480
a(S'mug'
p5481
S'NN'
p5482
tp5483
a(g5398
S'CD'
p5484
tp5485
a(S'new'
p5486
S'JJ'
p5487
tp5488
a(S'word'
p5489
S'NNS'
p5490
tp5491
a(S'everyday'
p5492
S'NN'
p5493
tp5494
a(g2256
S'NNP'
p5495
tp5496
a(g5404
S'NN'
p5497
tp5498
atp5499
a(I1
(lp5500
(S'facebook-ing'
p5501
S'JJ'
p5502
tp5503
a(S'^^'
p5504
S'NN'
p5505
tp5506
atp5507
a(I0
(lp5508
(S'linear'
p5509
S'NN'
p5510
tp5511
a(S'algebra'
p5512
S'NNP'
p5513
tp5514
atp5515
a(I0
(lp5516
(S'strong'
p5517
S'JJ'
p5518
tp5519
a(S'fit'
p5520
S'JJ'
p5521
tp5522
a(S'germ-any'
p5523
S'NNP'
p5524
tp5525
a(S'bye'
p5526
S'NN'
p5527
tp5528
a(S'bye'
p5529
S'NN'
p5530
tp5531
a(S'england'
p5532
S'NNP'
p5533
tp5534
a(S'tut'
p5535
S'NNP'
p5536
tp5537
atp5538
a(I3
(lp5539
(S'great-match'
p5540
S'NN'
p5541
tp5542
a(S'germ-any'
p5543
S'NNP'
p5544
tp5545
a(S'england'
p5546
S'NNP'
p5547
tp5548
a(S'referee'
p5549
S'NNS'
p5550
tp5551
a(S'omg'
p5552
S'NNP'
p5553
tp5554
a(S'real'
p5555
S'RB'
p5556
tp5557
a(g2085
S'NNP'
p5558
tp5559
atp5560
a(I1
(lp5561
(S'spain'
p5562
S'NNP'
p5563
tp5564
a(g2256
S'NNP'
p5565
tp5566
a(S'portage'
p5567
S'NNP'
p5568
tp5569
atp5570
a(I0
(lp5571
(S'singapore-'
p5572
S'NN'
p5573
tp5574
a(g3784
S'``'
p5575
tp5576
a(S'ma-lays'
p5577
S'NNP'
p5578
tp5579
a(S'east'
p5580
S'NNP'
p5581
tp5582
a(S'ma-lays'
p5583
S'NNP'
p5584
tp5585
a(S'mull'
p5586
S'NNP'
p5587
tp5588
a(S'cave'
p5589
S'NNP'
p5590
tp5591
a(S'Sarawak'
p5592
S'NNP'
p5593
tp5594
a(S'brunet'
p5595
S'NNP'
p5596
tp5597
a(S'wee'
p5598
S'NNP'
p5599
tp5600
atp5601
a(I0
(lp5602
(S'scrumptious'
p5603
S'JJ'
p5604
tp5605
a(S'tha'
p5606
S'NNP'
p5607
tp5608
a(S'cuisine'
p5609
g5607
tp5610
a(S'hand'
p5611
S'NNPS'
p5612
tp5613
a(S'cloth'
p5614
S'NNS'
p5615
tp5616
a(g1708
S'CD'
p5617
tp5618
a(g1708
S'CD'
p5619
tp5620
a(g483
g5619
tp5621
a(S'sin-gap'
p5622
S'NNP'
p5623
tp5624
a(S'shop'
p5625
S'NN'
p5626
tp5627
a(S'awesome'
p5628
S'VBN'
p5629
tp5630
a(S'endless'
p5631
S'NNP'
p5632
tp5633
a(S'row'
p5634
S'VBZ'
p5635
tp5636
a(S'book'
p5637
S'NNS'
p5638
tp5639
a(S'kino'
p5640
S'NNP'
p5641
tp5642
a(S'inc-red'
p5643
S'NNP'
p5644
tp5645
a(S'toy'
p5646
g5644
tp5647
a(S'story'
p5648
g5644
tp5649
a(g1708
S'CD'
p5650
tp5651
a(S'hum'
p5652
S'JJ'
p5653
tp5654
a(S'cure'
p5655
g5653
tp5656
a(S'inspire'
p5657
S'VBG'
p5658
tp5659
a(S'best'
p5660
S'JJS'
p5661
tp5662
a(S'move'
p5663
S'NN'
p5664
tp5665
a(S'rev'
p5666
S'RB'
p5667
tp5668
a(S'indeed'
p5669
g5667
tp5670
a(S'port'
p5671
S'NNP'
p5672
tp5673
a(g2256
S'VBZ'
p5674
tp5675
a(S'pr k'
p5676
S'NNP'
p5677
tp5678
a(g1037
S'CD'
p5679
tp5680
a(S'0'
p5681
S'-NONE-'
p5682
tp5683
a(S'cur'
p5684
S'JJ'
p5685
tp5686
a(S'scour'
p5687
S'VBN'
p5688
tp5689
a(S'best'
p5690
S'JJS'
p5691
tp5692
a(S'company'
p5693
S'NNP'
p5694
tp5695
a(S'^^'
p5696
g5694
tp5697
atp5698
a(I0
(lp5699
(Vwant
p5700
S'NNS'
p5701
tp5702
a(Vconger
p5703
S'VB'
p5704
tp5705
a(Vreceive
p5706
S'VBN'
p5707
tp5708
a(Vscholarship
p5709
S'NN'
p5710
tp5711
a(Vactive
p5712
S'VBN'
p5713
tp5714
a(Vun
p5715
S'VB'
p5716
tp5717
a(Vprogram
p5718
S'NN'
p5719
tp5720
a(Vhappy
p5721
S'NNP'
p5722
tp5723
a(Vguys
p5724
S'VBP'
p5725
tp5726
a(Vindeed
p5727
S'RB'
p5728
tp5729
a(Vcheer
p5730
S'NNS'
p5731
tp5732
a(Vad
p5733
S'NNP'
p5734
tp5735
a(Vchat
p5736
S'NNP'
p5737
tp5738
a(Vlye
p5739
g5737
tp5740
a(Vsee
p5741
S'VB'
p5742
tp5743
a(Vcollege
p5744
S'NN'
p5745
tp5746
a(Vdream
p5747
S'NN'
p5748
tp5749
a(Vcome
p5750
S'VBZ'
p5751
tp5752
a(Vtrue
p5753
S'JJ'
p5754
tp5755
a(Vp
p5756
S'NN'
p5757
tp5758
atp5759
a(I0
(lp5760
(S'wily'
p5761
S'NNP'
p5762
tp5763
a(S'sin-gap'
p5764
S'NNP'
p5765
tp5766
a(S'tomorrow'
p5767
S'NN'
p5768
tp5769
a(S'onward'
p5770
S'NNS'
p5771
tp5772
a(S'ten'
p5773
S'NNS'
p5774
tp5775
a(S'tiff'
p5776
S'NNP'
p5777
tp5778
a(S'ca'
p5779
S'MD'
p5780
tp5781
a(S'find'
p5782
S'VB'
p5783
tp5784
a(S'sentry'
p5785
S'NN'
p5786
tp5787
a(S'tel'
p5788
S'VBP'
p5789
tp5790
a(S'com'
p5791
S'VB'
p5792
tp5793
a(S'lat'
p5794
S'JJ'
p5795
tp5796
a(S'jury'
p5797
S'RB'
p5798
tp5799
a(S'august'
p5800
S'NNP'
p5801
tp5802
a(S'tut'
p5803
S'NNP'
p5804
tp5805
atp5806
a(I0
(lp5807
(S'span'
p5808
S'JJ'
p5809
tp5810
a(S'chines'
p5811
S'JJ'
p5812
tp5813
atp5814
a(I0
(lp5815
(S'wool f'
p5816
S'PRP'
p5817
tp5818
a(S'dun'
p5819
S'NN'
p5820
tp5821
a(S'know'
p5822
S'VB'
p5823
tp5824
a(S'pee'
p5825
S'VB'
p5826
tp5827
a(S'sit'
p5828
S'VBG'
p5829
tp5830
a(S'canto'
p5831
S'NN'
p5832
tp5833
atp5834
a(I0
(lp5835
(S'wool f'
p5836
S'PRP'
p5837
tp5838
a(S'wait'
p5839
S'NNP'
p5840
tp5841
a(S'tut'
p5842
S'NNP'
p5843
tp5844
atp5845
a(I0
(lp5846
(S'wool f'
p5847
S'PRP'
p5848
tp5849
a(S'wait'
p5850
S'NNP'
p5851
tp5852
a(S'bridge'
p5853
S'NNP'
p5854
tp5855
atp5856
a(I1
(lp5857
(S'eh'
p5858
S'NNP'
p5859
tp5860
a(S'^^'
p5861
S'NNP'
p5862
tp5863
atp5864
a(I0
(lp5865
(S'get'
p5866
S'VB'
p5867
tp5868
a(S'ba'
p5869
S'NNP'
p5870
tp5871
a(S'must'
p5872
S'MD'
p5873
tp5874
a(S'complete'
p5875
S'VB'
p5876
tp5877
a(S'phys'
p5878
S'JJ'
p5879
tp5880
a(S'educ'
p5881
S'NN'
p5882
tp5883
a(S'require'
p5884
S'NN'
p5885
tp5886
a(S'pas'
p5887
S'NN'
p5888
tp5889
a(S'swim'
p5890
S'NN'
p5891
tp5892
a(S'test'
p5893
S'NN'
p5894
tp5895
a(S'thx'
p5896
S'NNP'
p5897
tp5898
a(S'dad'
p5899
S'NN'
p5900
tp5901
a(S'teach'
p5902
S'NN'
p5903
tp5904
a(S'swim'
p5905
S'VB'
p5906
tp5907
a(S'grad u'
p5908
S'VB'
p5909
tp5910
a(S'college'
p5911
S'NN'
p5912
tp5913
atp5914
a(I0
(lp5915
(S'course'
p5916
S'NNP'
p5917
tp5918
a(S'instruct'
p5919
S'NNP'
p5920
tp5921
a(S'drive'
p5922
S'VBG'
p5923
tp5924
a(S'crazy'
p5925
S'RB'
p5926
tp5927
a(S'blab'
p5928
S'NNP'
p5929
tp5930
a(S'feel'
p5931
S'VBG'
p5932
tp5933
a(g5404
S'NN'
p5934
tp5935
atp5936
a(I0
(lp5937
(S'real'
p5938
S'RB'
p5939
tp5940
a(S'like'
p5941
S'VBZ'
p5942
tp5943
a(S'stows'
p5944
S'NNP'
p5945
tp5946
a(S'deserve'
p5947
S'NNS'
p5948
tp5949
atp5950
a(I4
(lp5951
(S'-is-'
p5952
S'NN'
p5953
tp5954
a(S'intellect'
p5955
S'NNP'
p5956
tp5957
a(S'lucre'
p5958
S'NNP'
p5959
tp5960
a(S'love'
p5961
S'NNP'
p5962
tp5963
a(S'resist'
p5964
S'NNP'
p5965
tp5966
a(S'addict'
p5967
S'NNP'
p5968
tp5969
a(S'mem'
p5970
S'NNP'
p5971
tp5972
a(S'super n'
p5973
S'NNP'
p5974
tp5975
atp5976
a(I1
(lp5977
(S'soooooooooooooooooooooo'
p5978
S'VBN'
p5979
tp5980
a(S'excite'
p5981
S'VBN'
p5982
tp5983
atp5984
a(I0
(lp5985
(S'con'
p5986
S'NNP'
p5987
tp5988
a(S'dao'
p5989
S'NNP'
p5990
tp5991
a(S'real'
p5992
S'RB'
p5993
tp5994
a(S'amaze'
p5995
S'VBN'
p5996
tp5997
a(S'beauty'
p5998
S'NN'
p5999
tp6000
a(S'excite'
p6001
S'VBD'
p6002
tp6003
a(S'hap'
p6004
S'VB'
p6005
tp6006
atp6007
a(I0
(lp6008
(S'oi'
p6009
S'NN'
p6010
tp6011
a(S'lift'
p6012
S'NN'
p6013
tp6014
atp6015
a(I0
(lp6016
(S'n hung'
p6017
S'NNP'
p6018
tp6019
a(S'this'
p6020
S'NNP'
p6021
tp6022
a(S'tao'
p6023
S'NNP'
p6024
tp6025
a(S't rang'
p6026
S'NNP'
p6027
tp6028
a(S'twist'
p6029
S'NN'
p6030
tp6031
a(S'v cl'
p6032
S'NN'
p6033
tp6034
atp6035
a(I1
(lp6036
(S'live'
p6037
S'JJ'
p6038
tp6039
a(S'cobra'
p6040
S'NN'
p6041
tp6042
a(S'3-meter'
p6043
S'CD'
p6044
tp6045
a(S'long'
p6046
S'RB'
p6047
tp6048
a(g1037
S'CD'
p6049
tp6050
a(S'kg'
p6051
S'NN'
p6052
tp6053
a(S'slaughter'
p6054
S'VBD'
p6055
tp6056
a(S'hom'
p6057
S'NN'
p6058
tp6059
atp6060
a(I0
(lp6061
(S'con'
p6062
S'NNP'
p6063
tp6064
a(S'no i'
p6065
S'NN'
p6066
tp6067
a(S'ky'
p6068
S'NN'
p6069
tp6070
a(S'diem'
p6071
S'NN'
p6072
tp6073
a(S'em'
p6074
S'NN'
p6075
tp6076
a(S'da'
p6077
S'NN'
p6078
tp6079
a(S'ra'
p6080
S'NN'
p6081
tp6082
a(S'di'
p6083
S'NN'
p6084
tp6085
a(S'mot'
p6086
S'NN'
p6087
tp6088
a(S'chief'
p6089
S'NN'
p6090
tp6091
a(S'mu a'
p6092
S'NN'
p6093
tp6094
a(S'put'
p6095
S'VBD'
p6096
tp6097
a(S'hand'
p6098
S'NN'
p6099
tp6100
a(S'pocket'
p6101
S'NN'
p6102
tp6103
atp6104
a(I0
(lp6105
(S'mu a'
p6106
S'NNP'
p6107
tp6108
a(S'de'
p6109
S'IN'
p6110
tp6111
a(g1818
S'NN'
p6112
tp6113
a(g1818
S'NN'
p6114
tp6115
a(S'ca'
p6116
S'NN'
p6117
tp6118
a(S'j'
p6119
S'NN'
p6120
tp6121
a(S'may'
p6122
S'MD'
p6123
tp6124
a(S'this'
p6125
S'VB'
p6126
tp6127
a(S'Thieu'
p6128
S'NN'
p6129
tp6130
a(S'ma'
p6131
S'NN'
p6132
tp6133
a(S'dis'
p6134
S'VBZ'
p6135
tp6136
a(S't hay'
p6137
S'NN'
p6138
tp6139
a(S'mu a'
p6140
S'NNP'
p6141
tp6142
a(S'chant'
p6143
S'NN'
p6144
tp6145
a(S'vol'
p6146
S'NN'
p6147
tp6148
atp6149
a(I0
(lp6150
(S'no i'
p6151
S'NN'
p6152
tp6153
a(S'la'
p6154
S'-NONE-'
p6155
tp6156
a(S'cc'
p6157
S'VBP'
p6158
tp6159
a(g342
S'NN'
p6160
tp6161
a(g626
S'NN'
p6162
tp6163
a(S'ha'
p6164
S'NNP'
p6165
tp6166
a(S'no i'
p6167
S'NNP'
p6168
tp6169
a(S'no i'
p6170
S'NN'
p6171
tp6172
a(S'gong'
p6173
S'IN'
p6174
tp6175
a(S'chi'
p6176
S'NN'
p6177
tp6178
a(S'cam'
p6179
S'NNP'
p6180
tp6181
a(S'van'
p6182
g6180
tp6183
a(S'ma'
p6184
S'NNP'
p6185
tp6186
a(S'Davao'
p6187
S'NN'
p6188
tp6189
a(S'trophic'
p6190
S'NNP'
p6191
tp6192
a(S'cho'
p6193
S'NN'
p6194
tp6195
a(S"'m"
p6196
S'JJ'
p6197
tp6198
a(S'de'
p6199
S'NN'
p6200
tp6201
a(S'dace'
p6202
S'NN'
p6203
tp6204
a(S'bidet'
p6205
g6203
tp6206
a(S'la'
p6207
S'NN'
p6208
tp6209
a(g342
g6208
tp6210
a(S'lye'
p6211
S'NN'
p6212
tp6213
a(S'Congo'
p6214
g6212
tp6215
a(S'hair'
p6216
S'NNP'
p6217
tp6218
atp6219
a(I0
(lp6220
(S'ye u'
p6221
S'NNP'
p6222
tp6223
a(S'ca u'
p6224
S'VBD'
p6225
tp6226
a(S'cc'
p6227
S'NN'
p6228
tp6229
a(S'ban'
p6230
S'NN'
p6231
tp6232
a(S'Davao'
p6233
S'NN'
p6234
tp6235
a(S'mien'
p6236
S'NN'
p6237
tp6238
a(S'nam'
p6239
S'NNP'
p6240
tp6241
a(S'cho'
p6242
S'NN'
p6243
tp6244
a(S'khan'
p6245
S'IN'
p6246
tp6247
a(S'truing'
p6248
S'JJ'
p6249
tp6250
a(S'truck'
p6251
S'NN'
p6252
tp6253
a(S'k hi'
p6254
S'NN'
p6255
tp6256
a(S'min h'
p6257
S'NN'
p6258
tp6259
a(S'ra'
p6260
S'NN'
p6261
tp6262
a(S'bac'
p6263
S'NNP'
p6264
tp6265
atp6266
a(I0
(lp6267
(S'beach'
p6268
S'NN'
p6269
tp6270
a(S'skin'
p6271
S'NN'
p6272
tp6273
a(S'peel'
p6274
S'VBG'
p6275
tp6276
a(S'sneak'
p6277
S'NN'
p6278
tp6279
atp6280
a(I1
(lp6281
(S'n ha'
p6282
S'NNP'
p6283
tp6284
a(S't rang'
p6285
S'NNP'
p6286
tp6287
a(S'tty'
p6288
S'NNP'
p6289
tp6290
a(g2090
S'NNP'
p6291
tp6292
atp6293
a(I0
(lp6294
(S'tennis-maniac'
p6295
S'JJ'
p6296
tp6297
atp6298
a(I0
(lp6299
(S'thang'
p6300
S'NNP'
p6301
tp6302
a(S'long'
p6303
S'NNP'
p6304
tp6305
a(S'thousand'
p6306
S'NNP'
p6307
tp6308
a(S'year'
p6309
S'NNP'
p6310
tp6311
a(S'nay'
p6312
S'NNP'
p6313
tp6314
atp6315
a(I2
(lp6316
(S'treasure'
p6317
S'NNS'
p6318
tp6319
a(S'every'
p6320
S'DT'
p6321
tp6322
a(S'mem'
p6323
S'NN'
p6324
tp6325
a(S'gather'
p6326
S'VBN'
p6327
tp6328
a(S'past'
p6329
S'JJ'
p6330
tp6331
a(S'21'
p6332
S'CD'
p6333
tp6334
atp6335
a(I0
(lp6336
(S'oh'
p6337
S'UH'
p6338
tp6339
a(S'oh'
p6340
S'NN'
p6341
tp6342
a(S'oh'
p6343
S'NN'
p6344
tp6345
a(S'tonight'
p6346
S'NN'
p6347
tp6348
a(S'crazy'
p6349
S'JJ'
p6350
tp6351
atp6352
a(I0
(lp6353
(S'http'
p6354
S'NN'
p6355
tp6356
a(S'//wwwyoutubecom/watch'
p6357
S'JJ'
p6358
tp6359
a(S'v=u9gbbbxhs-y'
p6360
S'JJ'
p6361
tp6362
a(S'si'
p6363
S'NN'
p6364
tp6365
a(S'love'
p6366
S'NNS'
p6367
tp6368
atp6369
a(I0
(lp6370
(S'hav'
p6371
S'NNP'
p6372
tp6373
a(S'deposit'
p6374
S'NN'
p6375
tp6376
a(S'yay'
p6377
S'NN'
p6378
tp6379
atp6380
a(I0
(lp6381
(S'enjoy'
p6382
S'NNS'
p6383
tp6384
a(S'play'
p6385
S'VBP'
p6386
tp6387
a(S'tr-iv'
p6388
S'NN'
p6389
tp6390
a(S'quiz z'
p6391
S'NN'
p6392
tp6393
atp6394
a(I0
(lp6395
(S'sao'
p6396
S'NNP'
p6397
tp6398
a(S'cc'
p6399
S'NN'
p6400
tp6401
a(S'em'
p6402
S'NN'
p6403
tp6404
a(S'Solomon'
p6405
S'NNP'
p6406
tp6407
a(S'g he'
p6408
S'NN'
p6409
tp6410
atp6411
a(I0
(lp6412
(S'final'
p6413
S'RB'
p6414
tp6415
a(S'known'
p6416
S'VBN'
p6417
tp6418
a(S'us'
p6419
S'VB'
p6420
tp6421
a(S'real'
p6422
S'NNP'
p6423
tp6424
a(S'face-book'
p6425
S'NN'
p6426
tp6427
a(S'screw'
p6428
S'VBD'
p6429
tp6430
a(S'lightface'
p6431
S'JJ'
p6432
tp6433
a(S'**'
p6434
S'-NONE-'
p6435
tp6436
atp6437
a(I0
(lp6438
(S'bat'
p6439
S'NNP'
p6440
tp6441
a(S'daub'
p6442
S'VBD'
p6443
tp6444
a(S'ca'
p6445
S'NN'
p6446
tp6447
a(S'noggin'
p6448
S'VBN'
p6449
tp6450
atp6451
a(I1
(lp6452
(S'found'
p6453
S'VBN'
p6454
tp6455
a(S'afford'
p6456
S'JJ'
p6457
tp6458
atp6459
a(I8
(lp6460
(S'wily'
p6461
S'NNP'
p6462
tp6463
a(S'foal'
p6464
S'NN'
p6465
tp6466
atp6467
a(I1
(lp6468
(S'feel'
p6469
S'NNS'
p6470
tp6471
a(S'hop'
p6472
S'JJ'
p6473
tp6474
a(S'read'
p6475
S'NN'
p6476
tp6477
a(g3574
S"''"
p6478
tp6479
a(S'common'
p6480
S'NNP'
p6481
tp6482
a(S'dat'
p6483
S'NNP'
p6484
tp6485
a(S'set'
p6486
S'NNP'
p6487
tp6488
atp6489
a(I0
(lp6490
(S'put'
p6491
S'VBG'
p6492
tp6493
a(S'hop'
p6494
S'NN'
p6495
tp6496
a(g1009
g1009
tp6497
a(g1009
g1009
tp6498
a(g1009
g1009
tp6499
atp6500
a(I0
(lp6501
(S'active'
p6502
S'NNS'
p6503
tp6504
a(S'decide'
p6505
S'NN'
p6506
tp6507
a(S'start'
p6508
S'VBN'
p6509
tp6510
a(S'new'
p6511
S'JJ'
p6512
tp6513
a(S'round'
p6514
S'NNP'
p6515
tp6516
a(S'this'
p6517
S'NNP'
p6518
tp6519
a(S'fa'
p6520
S'NNP'
p6521
tp6522
atp6523
a(I0
(lp6524
(S'scrolling'
p6525
S'VBG'
p6526
tp6527
a(S'letter'
p6528
S'NNS'
p6529
tp6530
a(S'hop'
p6531
S'VBG'
p6532
tp6533
a(S'word'
p6534
S'NN'
p6535
tp6536
a(S'congratulation'
p6537
S'NNS'
p6538
tp6539
a(S'appear'
p6540
S'NN'
p6541
tp6542
a(S'tut'
p6543
S'-NONE-'
p6544
tp6545
a(S'crush'
p6546
S'NNP'
p6547
tp6548
atp6549
a(I0
(lp6550
(S'lift'
p6551
S'NNP'
p6552
tp6553
a(S'furl'
p6554
S'JJ'
p6555
tp6556
a(S'rejection'
p6557
S'NNS'
p6558
tp6559
a(S'mass'
p6560
S'NN'
p6561
tp6562
a(S'rejection'
p6563
S'NNS'
p6564
tp6565
atp6566
a(I0
(lp6567
(S'cornel'
p6568
S'NNP'
p6569
tp6570
a(S'Harvard'
p6571
S'NNP'
p6572
tp6573
atp6574
a(I0
(lp6575
(S'furl'
p6576
S'NNP'
p6577
tp6578
a(S'ivy'
p6579
S'NNP'
p6580
tp6581
a(S'd-day'
p6582
S'NNP'
p6583
tp6584
atp6585
a(I7
(lp6586
(S'class'
p6587
S'NN'
p6588
tp6589
a(S'2014'
p6590
S'CD'
p6591
tp6592
a(S'ye'
p6593
S'NN'
p6594
tp6595
atp6596
a(I1
(lp6597
(S'apply'
p6598
S'VBG'
p6599
tp6600
a(S'hug'
p6601
S'JJ'
p6602
tp6603
a(S'fin-aid'
p6604
S'NNS'
p6605
tp6606
a(S'put'
p6607
S'VBD'
p6608
tp6609
a(S'hop'
p6610
S'NN'
p6611
tp6612
a(S'need-blind'
p6613
S'JJ'
p6614
tp6615
a(S'un'
p6616
S'NNS'
p6617
tp6618
atp6619
a(I2
(lp6620
(S'link'
p6621
S'RB'
p6622
tp6623
a(S'let'
p6624
S'NNP'
p6625
tp6626
a(S'cornel'
p6627
S'NNP'
p6628
tp6629
a(S'paulin'
p6630
S'NNP'
p6631
tp6632
a(S'iv'
p6633
S'NNP'
p6634
tp6635
a(S'tan'
p6636
S'NNP'
p6637
tp6638
a(S'dean'
p6639
S'NNP'
p6640
tp6641
a(S'scholar'
p6642
S'NNP'
p6643
tp6644
atp6645
a(I0
(lp6646
(S'd-day'
p6647
S'JJ'
p6648
tp6649
atp6650
a(I0
(lp6651
(S'ha'
p6652
S'NNP'
p6653
tp6654
a(S'no i'
p6655
S'NNP'
p6656
tp6657
a(S'tonight'
p6658
S'VBD'
p6659
tp6660
a(S'cold'
p6661
S'NNP'
p6662
tp6663
atp6664
a(I0
(lp6665
(S'test'
p6666
S'NNP'
p6667
tp6668
a(S'com'
p6669
S'VBG'
p6670
tp6671
atp6672
a(I0
(lp6673
(S'physic'
p6674
S'NNS'
p6675
tp6676
a(S'770'
p6677
S'CD'
p6678
tp6679
a(S'hm'
p6680
S'NN'
p6681
tp6682
a(S'rev'
p6683
S'RB'
p6684
tp6685
a(S'teak'
p6686
S'VB'
p6687
tp6688
a(S'physic'
p6689
S'NNS'
p6690
tp6691
atp6692
a(I1
(lp6693
(S'lol'
p6694
S'NN'
p6695
tp6696
a(g5398
S'CD'
p6697
tp6698
a(S'miss'
p6699
S'NNS'
p6700
tp6701
a(S'800'
p6702
S'CD'
p6703
tp6704
atp6705
a.